
========================================================================

** ELF Header Information

    File Name: .\obj\template.axf

    Machine class: ELFCLASS32 (32-bit)
    Data encoding: ELFDATA2LSB (Little endian)
    Header version: EV_CURRENT (Current version)
    Operating System ABI: none
    ABI Version: 0
    File Type: ET_EXEC (Executable) (2)
    Machine: EM_ARM (ARM)

    Image Entry point: 0x000000f1
    Flags: EF_ARM_HASENTRY + EF_ARM_ABI_FLOAT_SOFT (0x05000202)

    ARM ELF revision: 5 (ABI version 2)

    Conforms to Soft float procedure-call standard

    Built with
    Component: ARM Compiler 5.06 update 6 (build 750) Tool: armasm [4d35ec]
    Component: ARM Compiler 5.06 update 6 (build 750) Tool: armlink [4d35ed]

    Header size: 52 bytes (0x34)
    Program header entry size: 32 bytes (0x20)
    Section header entry size: 40 bytes (0x28)

    Program header entries: 1
    Section header entries: 16

    Program header offset: 247012 (0x0003c4e4)
    Section header offset: 247044 (0x0003c504)

    Section header string table index: 15

========================================================================

** Program header #0 (PT_LOAD) [PF_X + PF_W + PF_R + PF_ARM_ENTRY]
    Size : 7304 bytes (6792 bytes in file)
    Virtual address: 0x00000000 (Alignment 8)


========================================================================

** Section #1 'ER_RO' (SHT_PROGBITS) [SHF_ALLOC + SHF_EXECINSTR]
    Size   : 6744 bytes (alignment 4)
    Address: 0x00000000

    $d.realdata
    RESET
    __Vectors
        0x00000000:    20000230    0..     DCD    536871472
        0x00000004:    000000f1    ....    DCD    241
        0x00000008:    00000117    ....    DCD    279
        0x0000000c:    000000d5    ....    DCD    213
        0x00000010:    00000000    ....    DCD    0
        0x00000014:    00000000    ....    DCD    0
        0x00000018:    00000000    ....    DCD    0
        0x0000001c:    00000000    ....    DCD    0
        0x00000020:    00000000    ....    DCD    0
        0x00000024:    00000000    ....    DCD    0
        0x00000028:    00000000    ....    DCD    0
        0x0000002c:    0000011b    ....    DCD    283
        0x00000030:    00000000    ....    DCD    0
        0x00000034:    00000000    ....    DCD    0
        0x00000038:    0000011d    ....    DCD    285
        0x0000003c:    000007c5    ....    DCD    1989
        0x00000040:    00000121    !...    DCD    289
        0x00000044:    00000121    !...    DCD    289
        0x00000048:    00000121    !...    DCD    289
        0x0000004c:    00000121    !...    DCD    289
        0x00000050:    00000121    !...    DCD    289
        0x00000054:    00000121    !...    DCD    289
        0x00000058:    00000121    !...    DCD    289
        0x0000005c:    00000121    !...    DCD    289
        0x00000060:    00000a49    I...    DCD    2633
        0x00000064:    00000aa1    ....    DCD    2721
        0x00000068:    00000121    !...    DCD    289
        0x0000006c:    00000121    !...    DCD    289
        0x00000070:    00000aed    ....    DCD    2797
        0x00000074:    00000121    !...    DCD    289
        0x00000078:    00000121    !...    DCD    289
        0x0000007c:    00000121    !...    DCD    289
        0x00000080:    00000121    !...    DCD    289
        0x00000084:    00000121    !...    DCD    289
        0x00000088:    00000121    !...    DCD    289
        0x0000008c:    00000121    !...    DCD    289
        0x00000090:    00000121    !...    DCD    289
        0x00000094:    00000121    !...    DCD    289
        0x00000098:    00000121    !...    DCD    289
        0x0000009c:    00000121    !...    DCD    289
        0x000000a0:    00000121    !...    DCD    289
        0x000000a4:    00000121    !...    DCD    289
        0x000000a8:    00000121    !...    DCD    289
        0x000000ac:    00000121    !...    DCD    289
        0x000000b0:    00000121    !...    DCD    289
        0x000000b4:    00000121    !...    DCD    289
        0x000000b8:    00000121    !...    DCD    289
        0x000000bc:    00000121    !...    DCD    289
    $t
    .ARM.Collect$$$$00000000
    .ARM.Collect$$$$00000001
    __main
    _main_stk
        0x000000c0:    4803        .H      LDR      r0,__lit__00000000 ; [0xd0] = 0x20000230
        0x000000c2:    4685        .F      MOV      sp,r0
    .ARM.Collect$$$$00000004
    _main_scatterload
        0x000000c4:    f000f89a    ....    BL       __scatterload ; 0x1fc
    .ARM.Collect$$$$00000008
    .ARM.Collect$$$$0000000A
    .ARM.Collect$$$$0000000B
    __main_after_scatterload
    _main_clock
    _main_cpp_init
    _main_init
        0x000000c8:    4800        .H      LDR      r0,[pc,#0] ; [0xcc] = 0x1591
        0x000000ca:    4700        .G      BX       r0
    $d
        0x000000cc:    00001591    ....    DCD    5521
    .ARM.Collect$$$$00002712
    __lit__00000000
    .ARM.Collect$$$$0000000D
    .ARM.Collect$$$$0000000F
    __rt_final_cpp
    __rt_final_exit
        0x000000d0:    20000230    0..     DCD    536871472
    $t
    .emb_text
    HardFault_Handler
        0x000000d4:    2004        .       MOVS     r0,#4
        0x000000d6:    4671        qF      MOV      r1,lr
        0x000000d8:    4208        .B      TST      r0,r1
        0x000000da:    d002        ..      BEQ      0xe2 ; HardFault_Handler + 14
        0x000000dc:    f3ef8009    ....    MRS      r0,PSP
        0x000000e0:    e001        ..      B        0xe6 ; HardFault_Handler + 18
        0x000000e2:    f3ef8008    ....    MRS      r0,MSP
        0x000000e6:    4671        qF      MOV      r1,lr
        0x000000e8:    4a00        .J      LDR      r2,[pc,#0] ; [0xec] = 0x5e9
        0x000000ea:    4710        .G      BX       r2
    $d
        0x000000ec:    000005e9    ....    DCD    1513
    $t
    .text
    Reset_Handler
        0x000000f0:    480c        .H      LDR      r0,[pc,#48] ; [0x124] = 0x40000100
        0x000000f2:    490d        .I      LDR      r1,[pc,#52] ; [0x128] = 0x59
        0x000000f4:    6001        .`      STR      r1,[r0,#0]
        0x000000f6:    490d        .I      LDR      r1,[pc,#52] ; [0x12c] = 0x16
        0x000000f8:    6001        .`      STR      r1,[r0,#0]
        0x000000fa:    490d        .I      LDR      r1,[pc,#52] ; [0x130] = 0x88
        0x000000fc:    6001        .`      STR      r1,[r0,#0]
        0x000000fe:    4a0d        .J      LDR      r2,[pc,#52] ; [0x134] = 0x40000024
        0x00000100:    490d        .I      LDR      r1,[pc,#52] ; [0x138] = 0x5aa5
        0x00000102:    6011        .`      STR      r1,[r2,#0]
        0x00000104:    4a0d        .J      LDR      r2,[pc,#52] ; [0x13c] = 0x40000280
        0x00000106:    490e        .I      LDR      r1,[pc,#56] ; [0x140] = 0x1
        0x00000108:    6011        .`      STR      r1,[r2,#0]
        0x0000010a:    2100        .!      MOVS     r1,#0
        0x0000010c:    6001        .`      STR      r1,[r0,#0]
        0x0000010e:    480d        .H      LDR      r0,[pc,#52] ; [0x144] = 0x8b5
        0x00000110:    4780        .G      BLX      r0
        0x00000112:    480d        .H      LDR      r0,[pc,#52] ; [0x148] = 0xc1
        0x00000114:    4700        .G      BX       r0
    NMI_Handler
        0x00000116:    e7fe        ..      B        NMI_Handler ; 0x116
        0x00000118:    e7fe        ..      B        0x118 ; NMI_Handler + 2
    SVC_Handler
        0x0000011a:    e7fe        ..      B        SVC_Handler ; 0x11a
    PendSV_Handler
        0x0000011c:    e7fe        ..      B        PendSV_Handler ; 0x11c
        0x0000011e:    e7fe        ..      B        0x11e ; PendSV_Handler + 2
    Default_Handler
    ACMP01_IRQHandler
    ADC_IRQHandler
    BOD_IRQHandler
    BPWM0_IRQHandler
    BPWM1_IRQHandler
    CKFAIL_IRQHandler
    EINT024_IRQHandler
    EINT135_IRQHandler
    GPABGH_IRQHandler
    GPCDEF_IRQHandler
    I2C0_IRQHandler
    I2C1_IRQHandler
    ISP_IRQHandler
    PDMA_IRQHandler
    PWM0_IRQHandler
    PWM1_IRQHandler
    PWRWU_IRQHandler
    QSPI0_IRQHandler
    RTC_IRQHandler
    SPI0_IRQHandler
    TMR2_IRQHandler
    TMR3_IRQHandler
    UART13_IRQHandler
    UART46_IRQHandler
    UART57_IRQHandler
    USBD_IRQHandler
    USCI01_IRQHandler
    WDT_IRQHandler
        0x00000120:    e7fe        ..      B        Default_Handler ; 0x120
    $d
        0x00000122:    0000        ..      DCW    0
        0x00000124:    40000100    ...@    DCD    1073742080
        0x00000128:    00000059    Y...    DCD    89
        0x0000012c:    00000016    ....    DCD    22
        0x00000130:    00000088    ....    DCD    136
        0x00000134:    40000024    $..@    DCD    1073741860
        0x00000138:    00005aa5    .Z..    DCD    23205
        0x0000013c:    40000280    ...@    DCD    1073742464
        0x00000140:    00000001    ....    DCD    1
        0x00000144:    000008b5    ....    DCD    2229
        0x00000148:    000000c1    ....    DCD    193
    $t
    .text
    __aeabi_uidiv
    __aeabi_uidivmod
        0x0000014c:    b530        0.      PUSH     {r4,r5,lr}
        0x0000014e:    460b        .F      MOV      r3,r1
        0x00000150:    4601        .F      MOV      r1,r0
        0x00000152:    2000        .       MOVS     r0,#0
        0x00000154:    2220         "      MOVS     r2,#0x20
        0x00000156:    2401        .$      MOVS     r4,#1
        0x00000158:    e009        ..      B        0x16e ; __aeabi_uidiv + 34
        0x0000015a:    460d        .F      MOV      r5,r1
        0x0000015c:    40d5        .@      LSRS     r5,r5,r2
        0x0000015e:    429d        .B      CMP      r5,r3
        0x00000160:    d305        ..      BCC      0x16e ; __aeabi_uidiv + 34
        0x00000162:    461d        .F      MOV      r5,r3
        0x00000164:    4095        .@      LSLS     r5,r5,r2
        0x00000166:    1b49        I.      SUBS     r1,r1,r5
        0x00000168:    4625        %F      MOV      r5,r4
        0x0000016a:    4095        .@      LSLS     r5,r5,r2
        0x0000016c:    1940        @.      ADDS     r0,r0,r5
        0x0000016e:    4615        .F      MOV      r5,r2
        0x00000170:    1e52        R.      SUBS     r2,r2,#1
        0x00000172:    2d00        .-      CMP      r5,#0
        0x00000174:    dcf1        ..      BGT      0x15a ; __aeabi_uidiv + 14
        0x00000176:    bd30        0.      POP      {r4,r5,pc}
    .text
    __aeabi_memcpy
    __aeabi_memcpy4
    __aeabi_memcpy8
        0x00000178:    4603        .F      MOV      r3,r0
        0x0000017a:    430b        .C      ORRS     r3,r3,r1
        0x0000017c:    079b        ..      LSLS     r3,r3,#30
        0x0000017e:    d003        ..      BEQ      0x188 ; __aeabi_memcpy + 16
        0x00000180:    e009        ..      B        0x196 ; __aeabi_memcpy + 30
        0x00000182:    c908        ..      LDM      r1!,{r3}
        0x00000184:    1f12        ..      SUBS     r2,r2,#4
        0x00000186:    c008        ..      STM      r0!,{r3}
        0x00000188:    2a04        .*      CMP      r2,#4
        0x0000018a:    d2fa        ..      BCS      0x182 ; __aeabi_memcpy + 10
        0x0000018c:    e003        ..      B        0x196 ; __aeabi_memcpy + 30
        0x0000018e:    780b        .x      LDRB     r3,[r1,#0]
        0x00000190:    7003        .p      STRB     r3,[r0,#0]
        0x00000192:    1c40        @.      ADDS     r0,r0,#1
        0x00000194:    1c49        I.      ADDS     r1,r1,#1
        0x00000196:    1e52        R.      SUBS     r2,r2,#1
        0x00000198:    d2f9        ..      BCS      0x18e ; __aeabi_memcpy + 22
        0x0000019a:    4770        pG      BX       lr
    .text
    __aeabi_uldivmod
        0x0000019c:    b5f0        ..      PUSH     {r4-r7,lr}
        0x0000019e:    b41f        ..      PUSH     {r0-r4}
        0x000001a0:    4606        .F      MOV      r6,r0
        0x000001a2:    2000        .       MOVS     r0,#0
        0x000001a4:    b082        ..      SUB      sp,sp,#8
        0x000001a6:    4605        .F      MOV      r5,r0
        0x000001a8:    2440        @$      MOVS     r4,#0x40
        0x000001aa:    9101        ..      STR      r1,[sp,#4]
        0x000001ac:    9000        ..      STR      r0,[sp,#0]
        0x000001ae:    e01b        ..      B        0x1e8 ; __aeabi_uldivmod + 76
        0x000001b0:    9901        ..      LDR      r1,[sp,#4]
        0x000001b2:    4622        "F      MOV      r2,r4
        0x000001b4:    460f        .F      MOV      r7,r1
        0x000001b6:    4630        0F      MOV      r0,r6
        0x000001b8:    f000f842    ..B.    BL       __aeabi_llsr ; 0x240
        0x000001bc:    9a04        ..      LDR      r2,[sp,#0x10]
        0x000001be:    9b05        ..      LDR      r3,[sp,#0x14]
        0x000001c0:    1a80        ..      SUBS     r0,r0,r2
        0x000001c2:    4199        .A      SBCS     r1,r1,r3
        0x000001c4:    d310        ..      BCC      0x1e8 ; __aeabi_uldivmod + 76
        0x000001c6:    4610        .F      MOV      r0,r2
        0x000001c8:    4619        .F      MOV      r1,r3
        0x000001ca:    4622        "F      MOV      r2,r4
        0x000001cc:    f000f828    ..(.    BL       __aeabi_llsl ; 0x220
        0x000001d0:    1a36        6.      SUBS     r6,r6,r0
        0x000001d2:    418f        .A      SBCS     r7,r7,r1
        0x000001d4:    9701        ..      STR      r7,[sp,#4]
        0x000001d6:    4622        "F      MOV      r2,r4
        0x000001d8:    2001        .       MOVS     r0,#1
        0x000001da:    2100        .!      MOVS     r1,#0
        0x000001dc:    9f00        ..      LDR      r7,[sp,#0]
        0x000001de:    f000f81f    ....    BL       __aeabi_llsl ; 0x220
        0x000001e2:    1838        8.      ADDS     r0,r7,r0
        0x000001e4:    414d        MA      ADCS     r5,r5,r1
        0x000001e6:    9000        ..      STR      r0,[sp,#0]
        0x000001e8:    4620         F      MOV      r0,r4
        0x000001ea:    1e64        d.      SUBS     r4,r4,#1
        0x000001ec:    2800        .(      CMP      r0,#0
        0x000001ee:    dcdf        ..      BGT      0x1b0 ; __aeabi_uldivmod + 20
        0x000001f0:    9b01        ..      LDR      r3,[sp,#4]
        0x000001f2:    9800        ..      LDR      r0,[sp,#0]
        0x000001f4:    4629        )F      MOV      r1,r5
        0x000001f6:    4632        2F      MOV      r2,r6
        0x000001f8:    b007        ..      ADD      sp,sp,#0x1c
        0x000001fa:    bdf0        ..      POP      {r4-r7,pc}
    .text
    __scatterload
    __scatterload_rt2
        0x000001fc:    4c06        .L      LDR      r4,[pc,#24] ; [0x218] = 0x1a38
        0x000001fe:    2501        .%      MOVS     r5,#1
        0x00000200:    4e06        .N      LDR      r6,[pc,#24] ; [0x21c] = 0x1a58
        0x00000202:    e005        ..      B        0x210 ; __scatterload + 20
        0x00000204:    68e3        .h      LDR      r3,[r4,#0xc]
        0x00000206:    cc07        ..      LDM      r4!,{r0-r2}
        0x00000208:    432b        +C      ORRS     r3,r3,r5
        0x0000020a:    3c0c        .<      SUBS     r4,r4,#0xc
        0x0000020c:    4798        .G      BLX      r3
        0x0000020e:    3410        .4      ADDS     r4,r4,#0x10
        0x00000210:    42b4        .B      CMP      r4,r6
        0x00000212:    d3f7        ..      BCC      0x204 ; __scatterload + 8
        0x00000214:    f7ffff58    ..X.    BL       __main_after_scatterload ; 0xc8
    $d
        0x00000218:    00001a38    8...    DCD    6712
        0x0000021c:    00001a58    X...    DCD    6744
    $t
    .text
    __aeabi_llsl
    _ll_shift_l
        0x00000220:    b510        ..      PUSH     {r4,lr}
        0x00000222:    2a20         *      CMP      r2,#0x20
        0x00000224:    db04        ..      BLT      0x230 ; __aeabi_llsl + 16
        0x00000226:    4601        .F      MOV      r1,r0
        0x00000228:    3a20         :      SUBS     r2,r2,#0x20
        0x0000022a:    4091        .@      LSLS     r1,r1,r2
        0x0000022c:    2000        .       MOVS     r0,#0
        0x0000022e:    bd10        ..      POP      {r4,pc}
        0x00000230:    4091        .@      LSLS     r1,r1,r2
        0x00000232:    2320         #      MOVS     r3,#0x20
        0x00000234:    1a9c        ..      SUBS     r4,r3,r2
        0x00000236:    4603        .F      MOV      r3,r0
        0x00000238:    40e3        .@      LSRS     r3,r3,r4
        0x0000023a:    4319        .C      ORRS     r1,r1,r3
        0x0000023c:    4090        .@      LSLS     r0,r0,r2
        0x0000023e:    bd10        ..      POP      {r4,pc}
    .text
    __aeabi_llsr
    _ll_ushift_r
        0x00000240:    b510        ..      PUSH     {r4,lr}
        0x00000242:    2a20         *      CMP      r2,#0x20
        0x00000244:    db04        ..      BLT      0x250 ; __aeabi_llsr + 16
        0x00000246:    4608        .F      MOV      r0,r1
        0x00000248:    3a20         :      SUBS     r2,r2,#0x20
        0x0000024a:    40d0        .@      LSRS     r0,r0,r2
        0x0000024c:    2100        .!      MOVS     r1,#0
        0x0000024e:    bd10        ..      POP      {r4,pc}
        0x00000250:    460b        .F      MOV      r3,r1
        0x00000252:    40d3        .@      LSRS     r3,r3,r2
        0x00000254:    40d0        .@      LSRS     r0,r0,r2
        0x00000256:    2420         $      MOVS     r4,#0x20
        0x00000258:    1aa2        ..      SUBS     r2,r4,r2
        0x0000025a:    4091        .@      LSLS     r1,r1,r2
        0x0000025c:    4308        .C      ORRS     r0,r0,r1
        0x0000025e:    4619        .F      MOV      r1,r3
        0x00000260:    bd10        ..      POP      {r4,pc}
        0x00000262:    0000        ..      MOVS     r0,r0
    i.CLK_EnableModuleClock
    CLK_EnableModuleClock
        0x00000264:    b50e        ..      PUSH     {r1-r3,lr}
        0x00000266:    4b0d        .K      LDR      r3,[pc,#52] ; [0x29c] = 0x1820
        0x00000268:    681a        .h      LDR      r2,[r3,#0]
        0x0000026a:    6859        Yh      LDR      r1,[r3,#4]
        0x0000026c:    689b        .h      LDR      r3,[r3,#8]
        0x0000026e:    9302        ..      STR      r3,[sp,#8]
        0x00000270:    9200        ..      STR      r2,[sp,#0]
        0x00000272:    9101        ..      STR      r1,[sp,#4]
        0x00000274:    0f81        ..      LSRS     r1,r0,#30
        0x00000276:    0089        ..      LSLS     r1,r1,#2
        0x00000278:    466a        jF      MOV      r2,sp
        0x0000027a:    5851        QX      LDR      r1,[r2,r1]
        0x0000027c:    4a08        .J      LDR      r2,[pc,#32] ; [0x2a0] = 0x40000200
        0x0000027e:    1889        ..      ADDS     r1,r1,r2
        0x00000280:    6849        Ih      LDR      r1,[r1,#4]
        0x00000282:    06c3        ..      LSLS     r3,r0,#27
        0x00000284:    0edb        ..      LSRS     r3,r3,#27
        0x00000286:    2201        ."      MOVS     r2,#1
        0x00000288:    409a        .@      LSLS     r2,r2,r3
        0x0000028a:    4311        .C      ORRS     r1,r1,r2
        0x0000028c:    0f82        ..      LSRS     r2,r0,#30
        0x0000028e:    0092        ..      LSLS     r2,r2,#2
        0x00000290:    466b        kF      MOV      r3,sp
        0x00000292:    589a        .X      LDR      r2,[r3,r2]
        0x00000294:    4b02        .K      LDR      r3,[pc,#8] ; [0x2a0] = 0x40000200
        0x00000296:    18d2        ..      ADDS     r2,r2,r3
        0x00000298:    6051        Q`      STR      r1,[r2,#4]
        0x0000029a:    bd0e        ..      POP      {r1-r3,pc}
    $d
        0x0000029c:    00001820     ...    DCD    6176
        0x000002a0:    40000200    ...@    DCD    1073742336
    $t
    i.CLK_EnableXtalRC
    CLK_EnableXtalRC
        0x000002a4:    4902        .I      LDR      r1,[pc,#8] ; [0x2b0] = 0x40000200
        0x000002a6:    6809        .h      LDR      r1,[r1,#0]
        0x000002a8:    4301        .C      ORRS     r1,r1,r0
        0x000002aa:    4a01        .J      LDR      r2,[pc,#4] ; [0x2b0] = 0x40000200
        0x000002ac:    6011        .`      STR      r1,[r2,#0]
        0x000002ae:    4770        pG      BX       lr
    $d
        0x000002b0:    40000200    ...@    DCD    1073742336
    $t
    i.CLK_GetCPUFreq
    CLK_GetCPUFreq
        0x000002b4:    b510        ..      PUSH     {r4,lr}
        0x000002b6:    f000facb    ....    BL       SystemCoreClockUpdate ; 0x850
        0x000002ba:    4801        .H      LDR      r0,[pc,#4] ; [0x2c0] = 0x20000000
        0x000002bc:    6800        .h      LDR      r0,[r0,#0]
        0x000002be:    bd10        ..      POP      {r4,pc}
    $d
        0x000002c0:    20000000    ...     DCD    536870912
    $t
    i.CLK_GetHXTFreq
    CLK_GetHXTFreq
        0x000002c4:    4804        .H      LDR      r0,[pc,#16] ; [0x2d8] = 0x40000200
        0x000002c6:    6800        .h      LDR      r0,[r0,#0]
        0x000002c8:    07c0        ..      LSLS     r0,r0,#31
        0x000002ca:    0fc0        ..      LSRS     r0,r0,#31
        0x000002cc:    2800        .(      CMP      r0,#0
        0x000002ce:    d001        ..      BEQ      0x2d4 ; CLK_GetHXTFreq + 16
        0x000002d0:    4802        .H      LDR      r0,[pc,#8] ; [0x2dc] = 0x1e84800
        0x000002d2:    4770        pG      BX       lr
        0x000002d4:    2000        .       MOVS     r0,#0
        0x000002d6:    e7fc        ..      B        0x2d2 ; CLK_GetHXTFreq + 14
    $d
        0x000002d8:    40000200    ...@    DCD    1073742336
        0x000002dc:    01e84800    .H..    DCD    32000000
    $t
    i.CLK_GetLXTFreq
    CLK_GetLXTFreq
        0x000002e0:    4804        .H      LDR      r0,[pc,#16] ; [0x2f4] = 0x40000200
        0x000002e2:    6800        .h      LDR      r0,[r0,#0]
        0x000002e4:    2102        .!      MOVS     r1,#2
        0x000002e6:    4008        .@      ANDS     r0,r0,r1
        0x000002e8:    2800        .(      CMP      r0,#0
        0x000002ea:    d001        ..      BEQ      0x2f0 ; CLK_GetLXTFreq + 16
        0x000002ec:    0388        ..      LSLS     r0,r1,#14
        0x000002ee:    4770        pG      BX       lr
        0x000002f0:    2000        .       MOVS     r0,#0
        0x000002f2:    e7fc        ..      B        0x2ee ; CLK_GetLXTFreq + 14
    $d
        0x000002f4:    40000200    ...@    DCD    1073742336
    $t
    i.CLK_GetPCLK0Freq
    CLK_GetPCLK0Freq
        0x000002f8:    b510        ..      PUSH     {r4,lr}
        0x000002fa:    f000faa9    ....    BL       SystemCoreClockUpdate ; 0x850
        0x000002fe:    4804        .H      LDR      r0,[pc,#16] ; [0x310] = 0x40000200
        0x00000300:    6b40        @k      LDR      r0,[r0,#0x34]
        0x00000302:    0744        D.      LSLS     r4,r0,#29
        0x00000304:    0f64        d.      LSRS     r4,r4,#29
        0x00000306:    4803        .H      LDR      r0,[pc,#12] ; [0x314] = 0x20000000
        0x00000308:    6800        .h      LDR      r0,[r0,#0]
        0x0000030a:    40e0        .@      LSRS     r0,r0,r4
        0x0000030c:    bd10        ..      POP      {r4,pc}
    $d
        0x0000030e:    0000        ..      DCW    0
        0x00000310:    40000200    ...@    DCD    1073742336
        0x00000314:    20000000    ...     DCD    536870912
    $t
    i.CLK_GetPCLK1Freq
    CLK_GetPCLK1Freq
        0x00000318:    b510        ..      PUSH     {r4,lr}
        0x0000031a:    f000fa99    ....    BL       SystemCoreClockUpdate ; 0x850
        0x0000031e:    4804        .H      LDR      r0,[pc,#16] ; [0x330] = 0x40000200
        0x00000320:    6b40        @k      LDR      r0,[r0,#0x34]
        0x00000322:    2170        p!      MOVS     r1,#0x70
        0x00000324:    4008        .@      ANDS     r0,r0,r1
        0x00000326:    0904        ..      LSRS     r4,r0,#4
        0x00000328:    4802        .H      LDR      r0,[pc,#8] ; [0x334] = 0x20000000
        0x0000032a:    6800        .h      LDR      r0,[r0,#0]
        0x0000032c:    40e0        .@      LSRS     r0,r0,r4
        0x0000032e:    bd10        ..      POP      {r4,pc}
    $d
        0x00000330:    40000200    ...@    DCD    1073742336
        0x00000334:    20000000    ...     DCD    536870912
    $t
    i.CLK_GetPLLClockFreq
    CLK_GetPLLClockFreq
        0x00000338:    b5fe        ..      PUSH     {r1-r7,lr}
        0x0000033a:    a01b        ..      ADR      r0,{pc}+0x6e ; 0x3a8
        0x0000033c:    6800        .h      LDR      r0,[r0,#0]
        0x0000033e:    9000        ..      STR      r0,[sp,#0]
        0x00000340:    2000        .       MOVS     r0,#0
        0x00000342:    9002        ..      STR      r0,[sp,#8]
        0x00000344:    4819        .H      LDR      r0,[pc,#100] ; [0x3ac] = 0x40000240
        0x00000346:    6804        .h      LDR      r4,[r0,#0]
        0x00000348:    2005        .       MOVS     r0,#5
        0x0000034a:    0400        ..      LSLS     r0,r0,#16
        0x0000034c:    4020         @      ANDS     r0,r0,r4
        0x0000034e:    2800        .(      CMP      r0,#0
        0x00000350:    d127        '.      BNE      0x3a2 ; CLK_GetPLLClockFreq + 106
        0x00000352:    2001        .       MOVS     r0,#1
        0x00000354:    04c0        ..      LSLS     r0,r0,#19
        0x00000356:    4020         @      ANDS     r0,r0,r4
        0x00000358:    2800        .(      CMP      r0,#0
        0x0000035a:    d001        ..      BEQ      0x360 ; CLK_GetPLLClockFreq + 40
        0x0000035c:    4d14        .M      LDR      r5,[pc,#80] ; [0x3b0] = 0xb71b00
        0x0000035e:    e000        ..      B        0x362 ; CLK_GetPLLClockFreq + 42
        0x00000360:    4d14        .M      LDR      r5,[pc,#80] ; [0x3b4] = 0x1e84800
        0x00000362:    2001        .       MOVS     r0,#1
        0x00000364:    0440        @.      LSLS     r0,r0,#17
        0x00000366:    4020         @      ANDS     r0,r0,r4
        0x00000368:    2800        .(      CMP      r0,#0
        0x0000036a:    d001        ..      BEQ      0x370 ; CLK_GetPLLClockFreq + 56
        0x0000036c:    9502        ..      STR      r5,[sp,#8]
        0x0000036e:    e018        ..      B        0x3a2 ; CLK_GetPLLClockFreq + 106
        0x00000370:    2003        .       MOVS     r0,#3
        0x00000372:    0380        ..      LSLS     r0,r0,#14
        0x00000374:    4020         @      ANDS     r0,r0,r4
        0x00000376:    0b80        ..      LSRS     r0,r0,#14
        0x00000378:    4669        iF      MOV      r1,sp
        0x0000037a:    5c0a        .\      LDRB     r2,[r1,r0]
        0x0000037c:    9201        ..      STR      r2,[sp,#4]
        0x0000037e:    05e0        ..      LSLS     r0,r4,#23
        0x00000380:    0dc0        ..      LSRS     r0,r0,#23
        0x00000382:    1c86        ..      ADDS     r6,r0,#2
        0x00000384:    201f        .       MOVS     r0,#0x1f
        0x00000386:    0240        @.      LSLS     r0,r0,#9
        0x00000388:    4020         @      ANDS     r0,r0,r4
        0x0000038a:    0a40        @.      LSRS     r0,r0,#9
        0x0000038c:    1c87        ..      ADDS     r7,r0,#2
        0x0000038e:    9a01        ..      LDR      r2,[sp,#4]
        0x00000390:    437a        zC      MULS     r2,r7,r2
        0x00000392:    4611        .F      MOV      r1,r2
        0x00000394:    08aa        ..      LSRS     r2,r5,#2
        0x00000396:    4372        rC      MULS     r2,r6,r2
        0x00000398:    4610        .F      MOV      r0,r2
        0x0000039a:    f7fffed7    ....    BL       __aeabi_uidiv ; 0x14c
        0x0000039e:    0080        ..      LSLS     r0,r0,#2
        0x000003a0:    9002        ..      STR      r0,[sp,#8]
        0x000003a2:    9802        ..      LDR      r0,[sp,#8]
        0x000003a4:    bdfe        ..      POP      {r1-r7,pc}
    $d
        0x000003a6:    0000        ..      DCW    0
        0x000003a8:    04020201    ....    DCD    67240449
        0x000003ac:    40000240    @..@    DCD    1073742400
        0x000003b0:    00b71b00    ....    DCD    12000000
        0x000003b4:    01e84800    .H..    DCD    32000000
    $t
    i.CLK_GetPLLClockFreq
    CLK_GetPLLClockFreq
        0x000003b8:    b5fe        ..      PUSH     {r1-r7,lr}
        0x000003ba:    a01b        ..      ADR      r0,{pc}+0x6e ; 0x428
        0x000003bc:    6800        .h      LDR      r0,[r0,#0]
        0x000003be:    9000        ..      STR      r0,[sp,#0]
        0x000003c0:    2000        .       MOVS     r0,#0
        0x000003c2:    9002        ..      STR      r0,[sp,#8]
        0x000003c4:    4819        .H      LDR      r0,[pc,#100] ; [0x42c] = 0x40000240
        0x000003c6:    6804        .h      LDR      r4,[r0,#0]
        0x000003c8:    2005        .       MOVS     r0,#5
        0x000003ca:    0400        ..      LSLS     r0,r0,#16
        0x000003cc:    4020         @      ANDS     r0,r0,r4
        0x000003ce:    2800        .(      CMP      r0,#0
        0x000003d0:    d127        '.      BNE      0x422 ; CLK_GetPLLClockFreq + 106
        0x000003d2:    2001        .       MOVS     r0,#1
        0x000003d4:    04c0        ..      LSLS     r0,r0,#19
        0x000003d6:    4020         @      ANDS     r0,r0,r4
        0x000003d8:    2800        .(      CMP      r0,#0
        0x000003da:    d001        ..      BEQ      0x3e0 ; CLK_GetPLLClockFreq + 40
        0x000003dc:    4d14        .M      LDR      r5,[pc,#80] ; [0x430] = 0xb71b00
        0x000003de:    e000        ..      B        0x3e2 ; CLK_GetPLLClockFreq + 42
        0x000003e0:    4d14        .M      LDR      r5,[pc,#80] ; [0x434] = 0x1e84800
        0x000003e2:    2001        .       MOVS     r0,#1
        0x000003e4:    0440        @.      LSLS     r0,r0,#17
        0x000003e6:    4020         @      ANDS     r0,r0,r4
        0x000003e8:    2800        .(      CMP      r0,#0
        0x000003ea:    d001        ..      BEQ      0x3f0 ; CLK_GetPLLClockFreq + 56
        0x000003ec:    9502        ..      STR      r5,[sp,#8]
        0x000003ee:    e018        ..      B        0x422 ; CLK_GetPLLClockFreq + 106
        0x000003f0:    2003        .       MOVS     r0,#3
        0x000003f2:    0380        ..      LSLS     r0,r0,#14
        0x000003f4:    4020         @      ANDS     r0,r0,r4
        0x000003f6:    0b80        ..      LSRS     r0,r0,#14
        0x000003f8:    4669        iF      MOV      r1,sp
        0x000003fa:    5c0a        .\      LDRB     r2,[r1,r0]
        0x000003fc:    9201        ..      STR      r2,[sp,#4]
        0x000003fe:    05e0        ..      LSLS     r0,r4,#23
        0x00000400:    0dc0        ..      LSRS     r0,r0,#23
        0x00000402:    1c86        ..      ADDS     r6,r0,#2
        0x00000404:    201f        .       MOVS     r0,#0x1f
        0x00000406:    0240        @.      LSLS     r0,r0,#9
        0x00000408:    4020         @      ANDS     r0,r0,r4
        0x0000040a:    0a40        @.      LSRS     r0,r0,#9
        0x0000040c:    1c87        ..      ADDS     r7,r0,#2
        0x0000040e:    9a01        ..      LDR      r2,[sp,#4]
        0x00000410:    437a        zC      MULS     r2,r7,r2
        0x00000412:    4611        .F      MOV      r1,r2
        0x00000414:    08aa        ..      LSRS     r2,r5,#2
        0x00000416:    4372        rC      MULS     r2,r6,r2
        0x00000418:    4610        .F      MOV      r0,r2
        0x0000041a:    f7fffe97    ....    BL       __aeabi_uidiv ; 0x14c
        0x0000041e:    0080        ..      LSLS     r0,r0,#2
        0x00000420:    9002        ..      STR      r0,[sp,#8]
        0x00000422:    9802        ..      LDR      r0,[sp,#8]
        0x00000424:    bdfe        ..      POP      {r1-r7,pc}
    $d
        0x00000426:    0000        ..      DCW    0
        0x00000428:    04020201    ....    DCD    67240449
        0x0000042c:    40000240    @..@    DCD    1073742400
        0x00000430:    00b71b00    ....    DCD    12000000
        0x00000434:    01e84800    .H..    DCD    32000000
    $t
    i.CLK_SetHCLK
    CLK_SetHCLK
        0x00000438:    b570        p.      PUSH     {r4-r6,lr}
        0x0000043a:    4604        .F      MOV      r4,r0
        0x0000043c:    460d        .F      MOV      r5,r1
        0x0000043e:    4819        .H      LDR      r0,[pc,#100] ; [0x4a4] = 0x40000240
        0x00000440:    6900        .i      LDR      r0,[r0,#0x10]
        0x00000442:    2110        .!      MOVS     r1,#0x10
        0x00000444:    4008        .@      ANDS     r0,r0,r1
        0x00000446:    4606        .F      MOV      r6,r0
        0x00000448:    4816        .H      LDR      r0,[pc,#88] ; [0x4a4] = 0x40000240
        0x0000044a:    3840        @8      SUBS     r0,r0,#0x40
        0x0000044c:    6800        .h      LDR      r0,[r0,#0]
        0x0000044e:    2104        .!      MOVS     r1,#4
        0x00000450:    4308        .C      ORRS     r0,r0,r1
        0x00000452:    4914        .I      LDR      r1,[pc,#80] ; [0x4a4] = 0x40000240
        0x00000454:    3940        @9      SUBS     r1,r1,#0x40
        0x00000456:    6008        .`      STR      r0,[r1,#0]
        0x00000458:    2010        .       MOVS     r0,#0x10
        0x0000045a:    f000f86b    ..k.    BL       CLK_WaitClockReady ; 0x534
        0x0000045e:    4811        .H      LDR      r0,[pc,#68] ; [0x4a4] = 0x40000240
        0x00000460:    3840        @8      SUBS     r0,r0,#0x40
        0x00000462:    6900        .i      LDR      r0,[r0,#0x10]
        0x00000464:    08c0        ..      LSRS     r0,r0,#3
        0x00000466:    00c0        ..      LSLS     r0,r0,#3
        0x00000468:    1dc0        ..      ADDS     r0,r0,#7
        0x0000046a:    490e        .I      LDR      r1,[pc,#56] ; [0x4a4] = 0x40000240
        0x0000046c:    3940        @9      SUBS     r1,r1,#0x40
        0x0000046e:    6108        .a      STR      r0,[r1,#0x10]
        0x00000470:    4608        .F      MOV      r0,r1
        0x00000472:    6a00        .j      LDR      r0,[r0,#0x20]
        0x00000474:    0900        ..      LSRS     r0,r0,#4
        0x00000476:    0100        ..      LSLS     r0,r0,#4
        0x00000478:    4328        (C      ORRS     r0,r0,r5
        0x0000047a:    6208        .b      STR      r0,[r1,#0x20]
        0x0000047c:    4608        .F      MOV      r0,r1
        0x0000047e:    6900        .i      LDR      r0,[r0,#0x10]
        0x00000480:    08c0        ..      LSRS     r0,r0,#3
        0x00000482:    00c0        ..      LSLS     r0,r0,#3
        0x00000484:    4320         C      ORRS     r0,r0,r4
        0x00000486:    6108        .a      STR      r0,[r1,#0x10]
        0x00000488:    f000f9e2    ....    BL       SystemCoreClockUpdate ; 0x850
        0x0000048c:    2e00        ..      CMP      r6,#0
        0x0000048e:    d107        ..      BNE      0x4a0 ; CLK_SetHCLK + 104
        0x00000490:    4804        .H      LDR      r0,[pc,#16] ; [0x4a4] = 0x40000240
        0x00000492:    3840        @8      SUBS     r0,r0,#0x40
        0x00000494:    6800        .h      LDR      r0,[r0,#0]
        0x00000496:    2104        .!      MOVS     r1,#4
        0x00000498:    4388        .C      BICS     r0,r0,r1
        0x0000049a:    4902        .I      LDR      r1,[pc,#8] ; [0x4a4] = 0x40000240
        0x0000049c:    3940        @9      SUBS     r1,r1,#0x40
        0x0000049e:    6008        .`      STR      r0,[r1,#0]
        0x000004a0:    bd70        p.      POP      {r4-r6,pc}
    $d
        0x000004a2:    0000        ..      DCW    0
        0x000004a4:    40000240    @..@    DCD    1073742400
    $t
    i.CLK_SetModuleClock
    CLK_SetModuleClock
        0x000004a8:    b5f7        ..      PUSH     {r0-r2,r4-r7,lr}
        0x000004aa:    b088        ..      SUB      sp,sp,#0x20
        0x000004ac:    2200        ."      MOVS     r2,#0
        0x000004ae:    2300        .#      MOVS     r3,#0
        0x000004b0:    4c1e        .L      LDR      r4,[pc,#120] ; [0x52c] = 0x1800
        0x000004b2:    4625        %F      MOV      r5,r4
        0x000004b4:    cde0        ..      LDM      r5,{r5-r7}
        0x000004b6:    68e4        .h      LDR      r4,[r4,#0xc]
        0x000004b8:    9706        ..      STR      r7,[sp,#0x18]
        0x000004ba:    9605        ..      STR      r6,[sp,#0x14]
        0x000004bc:    9504        ..      STR      r5,[sp,#0x10]
        0x000004be:    9407        ..      STR      r4,[sp,#0x1c]
        0x000004c0:    4c1a        .L      LDR      r4,[pc,#104] ; [0x52c] = 0x1800
        0x000004c2:    3410        .4      ADDS     r4,r4,#0x10
        0x000004c4:    4625        %F      MOV      r5,r4
        0x000004c6:    cde0        ..      LDM      r5,{r5-r7}
        0x000004c8:    68e4        .h      LDR      r4,[r4,#0xc]
        0x000004ca:    9702        ..      STR      r7,[sp,#8]
        0x000004cc:    9601        ..      STR      r6,[sp,#4]
        0x000004ce:    9500        ..      STR      r5,[sp,#0]
        0x000004d0:    9403        ..      STR      r4,[sp,#0xc]
        0x000004d2:    0384        ..      LSLS     r4,r0,#14
        0x000004d4:    0e24        $.      LSRS     r4,r4,#24
        0x000004d6:    2c00        .,      CMP      r4,#0
        0x000004d8:    d010        ..      BEQ      0x4fc ; CLK_SetModuleClock + 84
        0x000004da:    0304        ..      LSLS     r4,r0,#12
        0x000004dc:    0fa4        ..      LSRS     r4,r4,#30
        0x000004de:    00a4        ..      LSLS     r4,r4,#2
        0x000004e0:    466d        mF      MOV      r5,sp
        0x000004e2:    592c        ,Y      LDR      r4,[r5,r4]
        0x000004e4:    4d12        .M      LDR      r5,[pc,#72] ; [0x530] = 0x40000220
        0x000004e6:    1963        c.      ADDS     r3,r4,r5
        0x000004e8:    0384        ..      LSLS     r4,r0,#14
        0x000004ea:    0e25        %.      LSRS     r5,r4,#24
        0x000004ec:    0584        ..      LSLS     r4,r0,#22
        0x000004ee:    0ee4        ..      LSRS     r4,r4,#27
        0x000004f0:    40a5        .@      LSLS     r5,r5,r4
        0x000004f2:    681c        .h      LDR      r4,[r3,#0]
        0x000004f4:    43ac        .C      BICS     r4,r4,r5
        0x000004f6:    9d0a        ..      LDR      r5,[sp,#0x28]
        0x000004f8:    432c        ,C      ORRS     r4,r4,r5
        0x000004fa:    601c        .`      STR      r4,[r3,#0]
        0x000004fc:    0104        ..      LSLS     r4,r0,#4
        0x000004fe:    0f64        d.      LSRS     r4,r4,#29
        0x00000500:    2c00        .,      CMP      r4,#0
        0x00000502:    d010        ..      BEQ      0x526 ; CLK_SetModuleClock + 126
        0x00000504:    0084        ..      LSLS     r4,r0,#2
        0x00000506:    0fa4        ..      LSRS     r4,r4,#30
        0x00000508:    00a4        ..      LSLS     r4,r4,#2
        0x0000050a:    ad04        ..      ADD      r5,sp,#0x10
        0x0000050c:    592c        ,Y      LDR      r4,[r5,r4]
        0x0000050e:    4d08        .M      LDR      r5,[pc,#32] ; [0x530] = 0x40000220
        0x00000510:    3d10        .=      SUBS     r5,r5,#0x10
        0x00000512:    1962        b.      ADDS     r2,r4,r5
        0x00000514:    0104        ..      LSLS     r4,r0,#4
        0x00000516:    0f65        e.      LSRS     r5,r4,#29
        0x00000518:    01c4        ..      LSLS     r4,r0,#7
        0x0000051a:    0ee4        ..      LSRS     r4,r4,#27
        0x0000051c:    40a5        .@      LSLS     r5,r5,r4
        0x0000051e:    6814        .h      LDR      r4,[r2,#0]
        0x00000520:    43ac        .C      BICS     r4,r4,r5
        0x00000522:    430c        .C      ORRS     r4,r4,r1
        0x00000524:    6014        .`      STR      r4,[r2,#0]
        0x00000526:    b00b        ..      ADD      sp,sp,#0x2c
        0x00000528:    bdf0        ..      POP      {r4-r7,pc}
    $d
        0x0000052a:    0000        ..      DCW    0
        0x0000052c:    00001800    ....    DCD    6144
        0x00000530:    40000220     ..@    DCD    1073742368
    $t
    i.CLK_WaitClockReady
    CLK_WaitClockReady
        0x00000534:    4601        .F      MOV      r1,r0
        0x00000536:    4a07        .J      LDR      r2,[pc,#28] ; [0x554] = 0x2f3dc0
        0x00000538:    e005        ..      B        0x546 ; CLK_WaitClockReady + 18
        0x0000053a:    4610        .F      MOV      r0,r2
        0x0000053c:    1e52        R.      SUBS     r2,r2,#1
        0x0000053e:    2800        .(      CMP      r0,#0
        0x00000540:    dc01        ..      BGT      0x546 ; CLK_WaitClockReady + 18
        0x00000542:    2000        .       MOVS     r0,#0
        0x00000544:    4770        pG      BX       lr
        0x00000546:    4804        .H      LDR      r0,[pc,#16] ; [0x558] = 0x40000240
        0x00000548:    6900        .i      LDR      r0,[r0,#0x10]
        0x0000054a:    4008        .@      ANDS     r0,r0,r1
        0x0000054c:    4288        .B      CMP      r0,r1
        0x0000054e:    d1f4        ..      BNE      0x53a ; CLK_WaitClockReady + 6
        0x00000550:    2001        .       MOVS     r0,#1
        0x00000552:    e7f7        ..      B        0x544 ; CLK_WaitClockReady + 16
    $d
        0x00000554:    002f3dc0    .=/.    DCD    3096000
        0x00000558:    40000240    @..@    DCD    1073742400
    $t
    i.CRC8
    CRC8
        0x0000055c:    b510        ..      PUSH     {r4,lr}
        0x0000055e:    4602        .F      MOV      r2,r0
        0x00000560:    2000        .       MOVS     r0,#0
        0x00000562:    e004        ..      B        0x56e ; CRC8 + 18
        0x00000564:    7813        .x      LDRB     r3,[r2,#0]
        0x00000566:    4043        C@      EORS     r3,r3,r0
        0x00000568:    4c04        .L      LDR      r4,[pc,#16] ; [0x57c] = 0x18a0
        0x0000056a:    5ce0        .\      LDRB     r0,[r4,r3]
        0x0000056c:    1c52        R.      ADDS     r2,r2,#1
        0x0000056e:    460b        .F      MOV      r3,r1
        0x00000570:    1e4c        L.      SUBS     r4,r1,#1
        0x00000572:    b2a1        ..      UXTH     r1,r4
        0x00000574:    2b00        .+      CMP      r3,#0
        0x00000576:    d1f5        ..      BNE      0x564 ; CRC8 + 8
        0x00000578:    bd10        ..      POP      {r4,pc}
    $d
        0x0000057a:    0000        ..      DCW    0
        0x0000057c:    000018a0    ....    DCD    6304
    $t
    i.GPIO_Init
    GPIO_Init
        0x00000580:    b510        ..      PUSH     {r4,lr}
        0x00000582:    2001        .       MOVS     r0,#1
        0x00000584:    0780        ..      LSLS     r0,r0,#30
        0x00000586:    6bc0        .k      LDR      r0,[r0,#0x3c]
        0x00000588:    210f        .!      MOVS     r1,#0xf
        0x0000058a:    0609        ..      LSLS     r1,r1,#24
        0x0000058c:    4388        .C      BICS     r0,r0,r1
        0x0000058e:    2101        .!      MOVS     r1,#1
        0x00000590:    0789        ..      LSLS     r1,r1,#30
        0x00000592:    63c8        .c      STR      r0,[r1,#0x3c]
        0x00000594:    4608        .F      MOV      r0,r1
        0x00000596:    6bc0        .k      LDR      r0,[r0,#0x3c]
        0x00000598:    0100        ..      LSLS     r0,r0,#4
        0x0000059a:    0900        ..      LSRS     r0,r0,#4
        0x0000059c:    63c8        .c      STR      r0,[r1,#0x3c]
        0x0000059e:    2201        ."      MOVS     r2,#1
        0x000005a0:    1409        ..      ASRS     r1,r1,#16
        0x000005a2:    4804        .H      LDR      r0,[pc,#16] ; [0x5b4] = 0x40004040
        0x000005a4:    f000f808    ....    BL       GPIO_SetMode ; 0x5b8
        0x000005a8:    2201        ."      MOVS     r2,#1
        0x000005aa:    03d1        ..      LSLS     r1,r2,#15
        0x000005ac:    4801        .H      LDR      r0,[pc,#4] ; [0x5b4] = 0x40004040
        0x000005ae:    f000f803    ....    BL       GPIO_SetMode ; 0x5b8
        0x000005b2:    bd10        ..      POP      {r4,pc}
    $d
        0x000005b4:    40004040    @@.@    DCD    1073758272
    $t
    i.GPIO_SetMode
    GPIO_SetMode
        0x000005b8:    b570        p.      PUSH     {r4-r6,lr}
        0x000005ba:    4603        .F      MOV      r3,r0
        0x000005bc:    2000        .       MOVS     r0,#0
        0x000005be:    e00f        ..      B        0x5e0 ; GPIO_SetMode + 40
        0x000005c0:    2401        .$      MOVS     r4,#1
        0x000005c2:    4084        .@      LSLS     r4,r4,r0
        0x000005c4:    400c        .@      ANDS     r4,r4,r1
        0x000005c6:    2c00        .,      CMP      r4,#0
        0x000005c8:    d009        ..      BEQ      0x5de ; GPIO_SetMode + 38
        0x000005ca:    681c        .h      LDR      r4,[r3,#0]
        0x000005cc:    0046        F.      LSLS     r6,r0,#1
        0x000005ce:    2503        .%      MOVS     r5,#3
        0x000005d0:    40b5        .@      LSLS     r5,r5,r6
        0x000005d2:    43ac        .C      BICS     r4,r4,r5
        0x000005d4:    0046        F.      LSLS     r6,r0,#1
        0x000005d6:    4615        .F      MOV      r5,r2
        0x000005d8:    40b5        .@      LSLS     r5,r5,r6
        0x000005da:    432c        ,C      ORRS     r4,r4,r5
        0x000005dc:    601c        .`      STR      r4,[r3,#0]
        0x000005de:    1c40        @.      ADDS     r0,r0,#1
        0x000005e0:    2810        .(      CMP      r0,#0x10
        0x000005e2:    d3ed        ..      BCC      0x5c0 ; GPIO_SetMode + 8
        0x000005e4:    bd70        p.      POP      {r4-r6,pc}
        0x000005e6:    0000        ..      MOVS     r0,r0
    i.Hard_Fault_Handler
    Hard_Fault_Handler
    __tagsym$$used
        0x000005e8:    4604        .F      MOV      r4,r0
        0x000005ea:    a004        ..      ADR      r0,{pc}+0x12 ; 0x5fc
        0x000005ec:    f000fc4e    ..N.    BL       __0printf$8 ; 0xe8c
        0x000005f0:    4620         F      MOV      r0,r4
        0x000005f2:    f001f861    ..a.    BL       stackDump ; 0x16b8
        0x000005f6:    bf00        ..      NOP      
        0x000005f8:    e7fe        ..      B        0x5f8 ; Hard_Fault_Handler + 16
    $d
        0x000005fa:    0000        ..      DCW    0
        0x000005fc:    48206e49    In H    DCD    1210084937
        0x00000600:    20647261    ard     DCD    543453793
        0x00000604:    6c756146    Faul    DCD    1819631942
        0x00000608:    61482074    t Ha    DCD    1632116852
        0x0000060c:    656c646e    ndle    DCD    1701602414
        0x00000610:    00000a72    r...    DCD    2674
    $t
    i.NVIC_EnableIRQ
    NVIC_EnableIRQ
        0x00000614:    06c2        ..      LSLS     r2,r0,#27
        0x00000616:    0ed2        ..      LSRS     r2,r2,#27
        0x00000618:    2101        .!      MOVS     r1,#1
        0x0000061a:    4091        .@      LSLS     r1,r1,r2
        0x0000061c:    4a01        .J      LDR      r2,[pc,#4] ; [0x624] = 0xe000e100
        0x0000061e:    6011        .`      STR      r1,[r2,#0]
        0x00000620:    4770        pG      BX       lr
    $d
        0x00000622:    0000        ..      DCW    0
        0x00000624:    e000e100    ....    DCD    3758153984
    $t
    i.NVIC_SetPriority
    NVIC_SetPriority
        0x00000628:    b510        ..      PUSH     {r4,lr}
        0x0000062a:    2800        .(      CMP      r0,#0
        0x0000062c:    da19        ..      BGE      0x662 ; NVIC_SetPriority + 58
        0x0000062e:    4a1a        .J      LDR      r2,[pc,#104] ; [0x698] = 0xe000ed1c
        0x00000630:    0703        ..      LSLS     r3,r0,#28
        0x00000632:    0f1b        ..      LSRS     r3,r3,#28
        0x00000634:    3b08        .;      SUBS     r3,r3,#8
        0x00000636:    089b        ..      LSRS     r3,r3,#2
        0x00000638:    009b        ..      LSLS     r3,r3,#2
        0x0000063a:    58d2        .X      LDR      r2,[r2,r3]
        0x0000063c:    0783        ..      LSLS     r3,r0,#30
        0x0000063e:    0edc        ..      LSRS     r4,r3,#27
        0x00000640:    23ff        .#      MOVS     r3,#0xff
        0x00000642:    40a3        .@      LSLS     r3,r3,r4
        0x00000644:    439a        .C      BICS     r2,r2,r3
        0x00000646:    078b        ..      LSLS     r3,r1,#30
        0x00000648:    0e1b        ..      LSRS     r3,r3,#24
        0x0000064a:    0784        ..      LSLS     r4,r0,#30
        0x0000064c:    0ee4        ..      LSRS     r4,r4,#27
        0x0000064e:    40a3        .@      LSLS     r3,r3,r4
        0x00000650:    431a        .C      ORRS     r2,r2,r3
        0x00000652:    4b11        .K      LDR      r3,[pc,#68] ; [0x698] = 0xe000ed1c
        0x00000654:    0704        ..      LSLS     r4,r0,#28
        0x00000656:    0f24        $.      LSRS     r4,r4,#28
        0x00000658:    3c08        .<      SUBS     r4,r4,#8
        0x0000065a:    08a4        ..      LSRS     r4,r4,#2
        0x0000065c:    00a4        ..      LSLS     r4,r4,#2
        0x0000065e:    511a        .Q      STR      r2,[r3,r4]
        0x00000660:    e018        ..      B        0x694 ; NVIC_SetPriority + 108
        0x00000662:    4a0e        .J      LDR      r2,[pc,#56] ; [0x69c] = 0xe000e100
        0x00000664:    2303        .#      MOVS     r3,#3
        0x00000666:    021b        ..      LSLS     r3,r3,#8
        0x00000668:    18d2        ..      ADDS     r2,r2,r3
        0x0000066a:    0883        ..      LSRS     r3,r0,#2
        0x0000066c:    009b        ..      LSLS     r3,r3,#2
        0x0000066e:    58d2        .X      LDR      r2,[r2,r3]
        0x00000670:    0783        ..      LSLS     r3,r0,#30
        0x00000672:    0edc        ..      LSRS     r4,r3,#27
        0x00000674:    23ff        .#      MOVS     r3,#0xff
        0x00000676:    40a3        .@      LSLS     r3,r3,r4
        0x00000678:    439a        .C      BICS     r2,r2,r3
        0x0000067a:    078b        ..      LSLS     r3,r1,#30
        0x0000067c:    0e1b        ..      LSRS     r3,r3,#24
        0x0000067e:    0784        ..      LSLS     r4,r0,#30
        0x00000680:    0ee4        ..      LSRS     r4,r4,#27
        0x00000682:    40a3        .@      LSLS     r3,r3,r4
        0x00000684:    431a        .C      ORRS     r2,r2,r3
        0x00000686:    4b05        .K      LDR      r3,[pc,#20] ; [0x69c] = 0xe000e100
        0x00000688:    2403        .$      MOVS     r4,#3
        0x0000068a:    0224        $.      LSLS     r4,r4,#8
        0x0000068c:    191b        ..      ADDS     r3,r3,r4
        0x0000068e:    0884        ..      LSRS     r4,r0,#2
        0x00000690:    00a4        ..      LSLS     r4,r4,#2
        0x00000692:    511a        .Q      STR      r2,[r3,r4]
        0x00000694:    bd10        ..      POP      {r4,pc}
    $d
        0x00000696:    0000        ..      DCW    0
        0x00000698:    e000ed1c    ....    DCD    3758157084
        0x0000069c:    e000e100    ....    DCD    3758153984
    $t
    i.SYS_Init
    SYS_Init
        0x000006a0:    b510        ..      PUSH     {r4,lr}
        0x000006a2:    bf00        ..      NOP      
        0x000006a4:    bf00        ..      NOP      
        0x000006a6:    bf00        ..      NOP      
        0x000006a8:    2059        Y       MOVS     r0,#0x59
        0x000006aa:    4925        %I      LDR      r1,[pc,#148] ; [0x740] = 0x40000100
        0x000006ac:    6008        .`      STR      r0,[r1,#0]
        0x000006ae:    2016        .       MOVS     r0,#0x16
        0x000006b0:    6008        .`      STR      r0,[r1,#0]
        0x000006b2:    2088        .       MOVS     r0,#0x88
        0x000006b4:    6008        .`      STR      r0,[r1,#0]
        0x000006b6:    4608        .F      MOV      r0,r1
        0x000006b8:    6800        .h      LDR      r0,[r0,#0]
        0x000006ba:    2800        .(      CMP      r0,#0
        0x000006bc:    d0f4        ..      BEQ      0x6a8 ; SYS_Init + 8
        0x000006be:    bf00        ..      NOP      
        0x000006c0:    4820         H      LDR      r0,[pc,#128] ; [0x744] = 0x40004140
        0x000006c2:    6800        .h      LDR      r0,[r0,#0]
        0x000006c4:    21f0        .!      MOVS     r1,#0xf0
        0x000006c6:    4388        .C      BICS     r0,r0,r1
        0x000006c8:    491e        .I      LDR      r1,[pc,#120] ; [0x744] = 0x40004140
        0x000006ca:    6008        .`      STR      r0,[r1,#0]
        0x000006cc:    2004        .       MOVS     r0,#4
        0x000006ce:    f7fffde9    ....    BL       CLK_EnableXtalRC ; 0x2a4
        0x000006d2:    2010        .       MOVS     r0,#0x10
        0x000006d4:    f7ffff2e    ....    BL       CLK_WaitClockReady ; 0x534
        0x000006d8:    2100        .!      MOVS     r1,#0
        0x000006da:    2007        .       MOVS     r0,#7
        0x000006dc:    f7fffeac    ....    BL       CLK_SetHCLK ; 0x438
        0x000006e0:    4819        .H      LDR      r0,[pc,#100] ; [0x748] = 0x5f803d10
        0x000006e2:    f7fffdbf    ....    BL       CLK_EnableModuleClock ; 0x264
        0x000006e6:    2200        ."      MOVS     r2,#0
        0x000006e8:    2103        .!      MOVS     r1,#3
        0x000006ea:    0609        ..      LSLS     r1,r1,#24
        0x000006ec:    4816        .H      LDR      r0,[pc,#88] ; [0x748] = 0x5f803d10
        0x000006ee:    f7fffedb    ....    BL       CLK_SetModuleClock ; 0x4a8
        0x000006f2:    4816        .H      LDR      r0,[pc,#88] ; [0x74c] = 0x5e800002
        0x000006f4:    f7fffdb6    ....    BL       CLK_EnableModuleClock ; 0x264
        0x000006f8:    2200        ."      MOVS     r2,#0
        0x000006fa:    2107        .!      MOVS     r1,#7
        0x000006fc:    0209        ..      LSLS     r1,r1,#8
        0x000006fe:    4813        .H      LDR      r0,[pc,#76] ; [0x74c] = 0x5e800002
        0x00000700:    f7fffed2    ....    BL       CLK_SetModuleClock ; 0x4a8
        0x00000704:    4812        .H      LDR      r0,[pc,#72] ; [0x750] = 0x5ec00003
        0x00000706:    f7fffdad    ....    BL       CLK_EnableModuleClock ; 0x264
        0x0000070a:    2200        ."      MOVS     r2,#0
        0x0000070c:    2107        .!      MOVS     r1,#7
        0x0000070e:    0309        ..      LSLS     r1,r1,#12
        0x00000710:    480f        .H      LDR      r0,[pc,#60] ; [0x750] = 0x5ec00003
        0x00000712:    f7fffec9    ....    BL       CLK_SetModuleClock ; 0x4a8
        0x00000716:    2001        .       MOVS     r0,#1
        0x00000718:    0780        ..      LSLS     r0,r0,#30
        0x0000071a:    6bc0        .k      LDR      r0,[r0,#0x3c]
        0x0000071c:    21ff        .!      MOVS     r1,#0xff
        0x0000071e:    0409        ..      LSLS     r1,r1,#16
        0x00000720:    4388        .C      BICS     r0,r0,r1
        0x00000722:    2133        3!      MOVS     r1,#0x33
        0x00000724:    0449        I.      LSLS     r1,r1,#17
        0x00000726:    1840        @.      ADDS     r0,r0,r1
        0x00000728:    2101        .!      MOVS     r1,#1
        0x0000072a:    0789        ..      LSLS     r1,r1,#30
        0x0000072c:    63c8        .c      STR      r0,[r1,#0x3c]
        0x0000072e:    f000f88f    ....    BL       SystemCoreClockUpdate ; 0x850
        0x00000732:    bf00        ..      NOP      
        0x00000734:    2000        .       MOVS     r0,#0
        0x00000736:    4902        .I      LDR      r1,[pc,#8] ; [0x740] = 0x40000100
        0x00000738:    6008        .`      STR      r0,[r1,#0]
        0x0000073a:    bf00        ..      NOP      
        0x0000073c:    bd10        ..      POP      {r4,pc}
    $d
        0x0000073e:    0000        ..      DCW    0
        0x00000740:    40000100    ...@    DCD    1073742080
        0x00000744:    40004140    @A.@    DCD    1073758528
        0x00000748:    5f803d10    .=._    DCD    1602239760
        0x0000074c:    5e800002    ...^    DCD    1585446914
        0x00000750:    5ec00003    ...^    DCD    1589641219
    $t
    i.SYS_ResetModule
    SYS_ResetModule
        0x00000754:    0e01        ..      LSRS     r1,r0,#24
        0x00000756:    2201        ."      MOVS     r2,#1
        0x00000758:    0792        ..      LSLS     r2,r2,#30
        0x0000075a:    1889        ..      ADDS     r1,r1,r2
        0x0000075c:    6889        .h      LDR      r1,[r1,#8]
        0x0000075e:    2201        ."      MOVS     r2,#1
        0x00000760:    4082        .@      LSLS     r2,r2,r0
        0x00000762:    4311        .C      ORRS     r1,r1,r2
        0x00000764:    0e02        ..      LSRS     r2,r0,#24
        0x00000766:    2301        .#      MOVS     r3,#1
        0x00000768:    079b        ..      LSLS     r3,r3,#30
        0x0000076a:    18d2        ..      ADDS     r2,r2,r3
        0x0000076c:    6091        .`      STR      r1,[r2,#8]
        0x0000076e:    0e01        ..      LSRS     r1,r0,#24
        0x00000770:    461a        .F      MOV      r2,r3
        0x00000772:    1889        ..      ADDS     r1,r1,r2
        0x00000774:    688a        .h      LDR      r2,[r1,#8]
        0x00000776:    2101        .!      MOVS     r1,#1
        0x00000778:    4081        .@      LSLS     r1,r1,r0
        0x0000077a:    438a        .C      BICS     r2,r2,r1
        0x0000077c:    0e01        ..      LSRS     r1,r0,#24
        0x0000077e:    18c9        ..      ADDS     r1,r1,r3
        0x00000780:    608a        .`      STR      r2,[r1,#8]
        0x00000782:    4770        pG      BX       lr
    i.SendChar
    SendChar
        0x00000784:    b510        ..      PUSH     {r4,lr}
        0x00000786:    4604        .F      MOV      r4,r0
        0x00000788:    4620         F      MOV      r0,r4
        0x0000078a:    f000f801    ....    BL       SendChar_ToUART ; 0x790
        0x0000078e:    bd10        ..      POP      {r4,pc}
    i.SendChar_ToUART
    SendChar_ToUART
        0x00000790:    bf00        ..      NOP      
        0x00000792:    490b        .I      LDR      r1,[pc,#44] ; [0x7c0] = 0x40070000
        0x00000794:    6989        .i      LDR      r1,[r1,#0x18]
        0x00000796:    2201        ."      MOVS     r2,#1
        0x00000798:    05d2        ..      LSLS     r2,r2,#23
        0x0000079a:    4011        .@      ANDS     r1,r1,r2
        0x0000079c:    2900        .)      CMP      r1,#0
        0x0000079e:    d1f8        ..      BNE      0x792 ; SendChar_ToUART + 2
        0x000007a0:    280a        .(      CMP      r0,#0xa
        0x000007a2:    d10a        ..      BNE      0x7ba ; SendChar_ToUART + 42
        0x000007a4:    210d        .!      MOVS     r1,#0xd
        0x000007a6:    4a06        .J      LDR      r2,[pc,#24] ; [0x7c0] = 0x40070000
        0x000007a8:    6011        .`      STR      r1,[r2,#0]
        0x000007aa:    bf00        ..      NOP      
        0x000007ac:    4904        .I      LDR      r1,[pc,#16] ; [0x7c0] = 0x40070000
        0x000007ae:    6989        .i      LDR      r1,[r1,#0x18]
        0x000007b0:    2201        ."      MOVS     r2,#1
        0x000007b2:    05d2        ..      LSLS     r2,r2,#23
        0x000007b4:    4011        .@      ANDS     r1,r1,r2
        0x000007b6:    2900        .)      CMP      r1,#0
        0x000007b8:    d1f8        ..      BNE      0x7ac ; SendChar_ToUART + 28
        0x000007ba:    4901        .I      LDR      r1,[pc,#4] ; [0x7c0] = 0x40070000
        0x000007bc:    6008        .`      STR      r0,[r1,#0]
        0x000007be:    4770        pG      BX       lr
    $d
        0x000007c0:    40070000    ...@    DCD    1074200576
    $t
    i.SysTick_Handler
    SysTick_Handler
        0x000007c4:    b500        ..      PUSH     {lr}
        0x000007c6:    f000ffef    ....    BL       systick_counter ; 0x17a8
        0x000007ca:    f000fea9    ....    BL       get_systick ; 0x1520
        0x000007ce:    1c40        @.      ADDS     r0,r0,#1
        0x000007d0:    2800        .(      CMP      r0,#0
        0x000007d2:    d101        ..      BNE      0x7d8 ; SysTick_Handler + 20
        0x000007d4:    f000ff64    ..d.    BL       set_systick ; 0x16a0
        0x000007d8:    bd00        ..      POP      {pc}
        0x000007da:    0000        ..      MOVS     r0,r0
    i.SysTick_enable
    SysTick_enable
        0x000007dc:    b570        p.      PUSH     {r4-r6,lr}
        0x000007de:    4605        .F      MOV      r5,r0
        0x000007e0:    2000        .       MOVS     r0,#0
        0x000007e2:    f000ff5d    ..].    BL       set_systick ; 0x16a0
        0x000007e6:    4629        )F      MOV      r1,r5
        0x000007e8:    480f        .H      LDR      r0,[pc,#60] ; [0x828] = 0x20000000
        0x000007ea:    6800        .h      LDR      r0,[r0,#0]
        0x000007ec:    f7fffcae    ....    BL       __aeabi_uidiv ; 0x14c
        0x000007f0:    4604        .F      MOV      r4,r0
        0x000007f2:    1e60        `.      SUBS     r0,r4,#1
        0x000007f4:    490d        .I      LDR      r1,[pc,#52] ; [0x82c] = 0xffffff
        0x000007f6:    4288        .B      CMP      r0,r1
        0x000007f8:    d901        ..      BLS      0x7fe ; SysTick_enable + 34
        0x000007fa:    2001        .       MOVS     r0,#1
        0x000007fc:    e00c        ..      B        0x818 ; SysTick_enable + 60
        0x000007fe:    1e60        `.      SUBS     r0,r4,#1
        0x00000800:    490b        .I      LDR      r1,[pc,#44] ; [0x830] = 0xe000e000
        0x00000802:    6148        Ha      STR      r0,[r1,#0x14]
        0x00000804:    2103        .!      MOVS     r1,#3
        0x00000806:    1f08        ..      SUBS     r0,r1,#4
        0x00000808:    f7ffff0e    ....    BL       NVIC_SetPriority ; 0x628
        0x0000080c:    2000        .       MOVS     r0,#0
        0x0000080e:    4908        .I      LDR      r1,[pc,#32] ; [0x830] = 0xe000e000
        0x00000810:    6188        .a      STR      r0,[r1,#0x18]
        0x00000812:    2007        .       MOVS     r0,#7
        0x00000814:    6108        .a      STR      r0,[r1,#0x10]
        0x00000816:    2000        .       MOVS     r0,#0
        0x00000818:    2800        .(      CMP      r0,#0
        0x0000081a:    d004        ..      BEQ      0x826 ; SysTick_enable + 74
        0x0000081c:    a005        ..      ADR      r0,{pc}+0x18 ; 0x834
        0x0000081e:    f000fb35    ..5.    BL       __0printf$8 ; 0xe8c
        0x00000822:    bf00        ..      NOP      
        0x00000824:    e7fe        ..      B        0x824 ; SysTick_enable + 72
        0x00000826:    bd70        p.      POP      {r4-r6,pc}
    $d
        0x00000828:    20000000    ...     DCD    536870912
        0x0000082c:    00ffffff    ....    DCD    16777215
        0x00000830:    e000e000    ....    DCD    3758153728
        0x00000834:    20746553    Set     DCD    544499027
        0x00000838:    74737973    syst    DCD    1953724787
        0x0000083c:    74206d65    em t    DCD    1948282213
        0x00000840:    206b6369    ick     DCD    543908713
        0x00000844:    6f727265    erro    DCD    1869771365
        0x00000848:    0a212172    r!!.    DCD    169943410
        0x0000084c:    00000000    ....    DCD    0
    $t
    i.SystemCoreClockUpdate
    SystemCoreClockUpdate
        0x00000850:    b570        p.      PUSH     {r4-r6,lr}
        0x00000852:    4812        .H      LDR      r0,[pc,#72] ; [0x89c] = 0x40000200
        0x00000854:    6900        .i      LDR      r0,[r0,#0x10]
        0x00000856:    0745        E.      LSLS     r5,r0,#29
        0x00000858:    0f6d        m.      LSRS     r5,r5,#29
        0x0000085a:    f7fffd6d    ..m.    BL       CLK_GetPLLClockFreq ; 0x338
        0x0000085e:    4910        .I      LDR      r1,[pc,#64] ; [0x8a0] = 0x20000008
        0x00000860:    6008        .`      STR      r0,[r1,#0]
        0x00000862:    2d02        .-      CMP      r5,#2
        0x00000864:    d003        ..      BEQ      0x86e ; SystemCoreClockUpdate + 30
        0x00000866:    00a8        ..      LSLS     r0,r5,#2
        0x00000868:    490e        .I      LDR      r1,[pc,#56] ; [0x8a4] = 0x17e0
        0x0000086a:    580c        .X      LDR      r4,[r1,r0]
        0x0000086c:    e001        ..      B        0x872 ; SystemCoreClockUpdate + 34
        0x0000086e:    480c        .H      LDR      r0,[pc,#48] ; [0x8a0] = 0x20000008
        0x00000870:    6804        .h      LDR      r4,[r0,#0]
        0x00000872:    480a        .H      LDR      r0,[pc,#40] ; [0x89c] = 0x40000200
        0x00000874:    6a00        .j      LDR      r0,[r0,#0x20]
        0x00000876:    0700        ..      LSLS     r0,r0,#28
        0x00000878:    0f00        ..      LSRS     r0,r0,#28
        0x0000087a:    1c46        F.      ADDS     r6,r0,#1
        0x0000087c:    4631        1F      MOV      r1,r6
        0x0000087e:    4620         F      MOV      r0,r4
        0x00000880:    f7fffc64    ..d.    BL       __aeabi_uidiv ; 0x14c
        0x00000884:    4908        .I      LDR      r1,[pc,#32] ; [0x8a8] = 0x20000000
        0x00000886:    6008        .`      STR      r0,[r1,#0]
        0x00000888:    4908        .I      LDR      r1,[pc,#32] ; [0x8ac] = 0xf4240
        0x0000088a:    4807        .H      LDR      r0,[pc,#28] ; [0x8a8] = 0x20000000
        0x0000088c:    6800        .h      LDR      r0,[r0,#0]
        0x0000088e:    104a        J.      ASRS     r2,r1,#1
        0x00000890:    1880        ..      ADDS     r0,r0,r2
        0x00000892:    f7fffc5b    ..[.    BL       __aeabi_uidiv ; 0x14c
        0x00000896:    4906        .I      LDR      r1,[pc,#24] ; [0x8b0] = 0x20000004
        0x00000898:    6008        .`      STR      r0,[r1,#0]
        0x0000089a:    bd70        p.      POP      {r4-r6,pc}
    $d
        0x0000089c:    40000200    ...@    DCD    1073742336
        0x000008a0:    20000008    ...     DCD    536870920
        0x000008a4:    000017e0    ....    DCD    6112
        0x000008a8:    20000000    ...     DCD    536870912
        0x000008ac:    000f4240    @B..    DCD    1000000
        0x000008b0:    20000004    ...     DCD    536870916
    $t
    i.SystemInit
    SystemInit
        0x000008b4:    bf00        ..      NOP      
        0x000008b6:    bf00        ..      NOP      
        0x000008b8:    bf00        ..      NOP      
        0x000008ba:    2059        Y       MOVS     r0,#0x59
        0x000008bc:    490f        .I      LDR      r1,[pc,#60] ; [0x8fc] = 0x40000100
        0x000008be:    6008        .`      STR      r0,[r1,#0]
        0x000008c0:    2016        .       MOVS     r0,#0x16
        0x000008c2:    6008        .`      STR      r0,[r1,#0]
        0x000008c4:    2088        .       MOVS     r0,#0x88
        0x000008c6:    6008        .`      STR      r0,[r1,#0]
        0x000008c8:    4608        .F      MOV      r0,r1
        0x000008ca:    6800        .h      LDR      r0,[r0,#0]
        0x000008cc:    2800        .(      CMP      r0,#0
        0x000008ce:    d0f4        ..      BEQ      0x8ba ; SystemInit + 6
        0x000008d0:    bf00        ..      NOP      
        0x000008d2:    480b        .H      LDR      r0,[pc,#44] ; [0x900] = 0x40000200
        0x000008d4:    6800        .h      LDR      r0,[r0,#0]
        0x000008d6:    2107        .!      MOVS     r1,#7
        0x000008d8:    0509        ..      LSLS     r1,r1,#20
        0x000008da:    4388        .C      BICS     r0,r0,r1
        0x000008dc:    4908        .I      LDR      r1,[pc,#32] ; [0x900] = 0x40000200
        0x000008de:    6008        .`      STR      r0,[r1,#0]
        0x000008e0:    4608        .F      MOV      r0,r1
        0x000008e2:    6800        .h      LDR      r0,[r0,#0]
        0x000008e4:    2107        .!      MOVS     r1,#7
        0x000008e6:    0509        ..      LSLS     r1,r1,#20
        0x000008e8:    4308        .C      ORRS     r0,r0,r1
        0x000008ea:    4905        .I      LDR      r1,[pc,#20] ; [0x900] = 0x40000200
        0x000008ec:    6008        .`      STR      r0,[r1,#0]
        0x000008ee:    bf00        ..      NOP      
        0x000008f0:    2000        .       MOVS     r0,#0
        0x000008f2:    4902        .I      LDR      r1,[pc,#8] ; [0x8fc] = 0x40000100
        0x000008f4:    6008        .`      STR      r0,[r1,#0]
        0x000008f6:    bf00        ..      NOP      
        0x000008f8:    4770        pG      BX       lr
    $d
        0x000008fa:    0000        ..      DCW    0
        0x000008fc:    40000100    ...@    DCD    1073742080
        0x00000900:    40000200    ...@    DCD    1073742336
    $t
    i.TIMER0_Init
    TIMER0_Init
        0x00000904:    b510        ..      PUSH     {r4,lr}
        0x00000906:    220a        ."      MOVS     r2,#0xa
        0x00000908:    2101        .!      MOVS     r1,#1
        0x0000090a:    06c9        ..      LSLS     r1,r1,#27
        0x0000090c:    4803        .H      LDR      r0,[pc,#12] ; [0x91c] = 0x40050000
        0x0000090e:    f000f86b    ..k.    BL       TIMER_Open ; 0x9e8
        0x00000912:    2008        .       MOVS     r0,#8
        0x00000914:    f7fffe7e    ..~.    BL       NVIC_EnableIRQ ; 0x614
        0x00000918:    bd10        ..      POP      {r4,pc}
    $d
        0x0000091a:    0000        ..      DCW    0
        0x0000091c:    40050000    ...@    DCD    1074069504
    $t
    i.TIMER1_Init
    TIMER1_Init
        0x00000920:    b510        ..      PUSH     {r4,lr}
        0x00000922:    227d        }"      MOVS     r2,#0x7d
        0x00000924:    00d2        ..      LSLS     r2,r2,#3
        0x00000926:    2101        .!      MOVS     r1,#1
        0x00000928:    06c9        ..      LSLS     r1,r1,#27
        0x0000092a:    4806        .H      LDR      r0,[pc,#24] ; [0x944] = 0x40050020
        0x0000092c:    f000f85c    ..\.    BL       TIMER_Open ; 0x9e8
        0x00000930:    4804        .H      LDR      r0,[pc,#16] ; [0x944] = 0x40050020
        0x00000932:    f000f809    ....    BL       TIMER_EnableInt ; 0x948
        0x00000936:    2009        .       MOVS     r0,#9
        0x00000938:    f7fffe6c    ..l.    BL       NVIC_EnableIRQ ; 0x614
        0x0000093c:    4801        .H      LDR      r0,[pc,#4] ; [0x944] = 0x40050020
        0x0000093e:    f000f87c    ..|.    BL       TIMER_Start ; 0xa3a
        0x00000942:    bd10        ..      POP      {r4,pc}
    $d
        0x00000944:    40050020     ..@    DCD    1074069536
    $t
    i.TIMER_EnableInt
    TIMER_EnableInt
        0x00000948:    6801        .h      LDR      r1,[r0,#0]
        0x0000094a:    2201        ."      MOVS     r2,#1
        0x0000094c:    0752        R.      LSLS     r2,r2,#29
        0x0000094e:    4311        .C      ORRS     r1,r1,r2
        0x00000950:    6001        .`      STR      r1,[r0,#0]
        0x00000952:    4770        pG      BX       lr
    i.TIMER_GetModuleClock
    TIMER_GetModuleClock
        0x00000954:    b530        0.      PUSH     {r4,r5,lr}
        0x00000956:    b089        ..      SUB      sp,sp,#0x24
        0x00000958:    4604        .F      MOV      r4,r0
        0x0000095a:    2220         "      MOVS     r2,#0x20
        0x0000095c:    491e        .I      LDR      r1,[pc,#120] ; [0x9d8] = 0x1838
        0x0000095e:    a801        ..      ADD      r0,sp,#4
        0x00000960:    f7fffc0a    ....    BL       __aeabi_memcpy ; 0x178
        0x00000964:    481d        .H      LDR      r0,[pc,#116] ; [0x9dc] = 0x40050000
        0x00000966:    4284        .B      CMP      r4,r0
        0x00000968:    d106        ..      BNE      0x978 ; TIMER_GetModuleClock + 36
        0x0000096a:    481d        .H      LDR      r0,[pc,#116] ; [0x9e0] = 0x40000200
        0x0000096c:    6940        @i      LDR      r0,[r0,#0x14]
        0x0000096e:    2107        .!      MOVS     r1,#7
        0x00000970:    0209        ..      LSLS     r1,r1,#8
        0x00000972:    4008        .@      ANDS     r0,r0,r1
        0x00000974:    0a05        ..      LSRS     r5,r0,#8
        0x00000976:    e01a        ..      B        0x9ae ; TIMER_GetModuleClock + 90
        0x00000978:    4818        .H      LDR      r0,[pc,#96] ; [0x9dc] = 0x40050000
        0x0000097a:    3020         0      ADDS     r0,r0,#0x20
        0x0000097c:    4284        .B      CMP      r4,r0
        0x0000097e:    d106        ..      BNE      0x98e ; TIMER_GetModuleClock + 58
        0x00000980:    4817        .H      LDR      r0,[pc,#92] ; [0x9e0] = 0x40000200
        0x00000982:    6940        @i      LDR      r0,[r0,#0x14]
        0x00000984:    2107        .!      MOVS     r1,#7
        0x00000986:    0309        ..      LSLS     r1,r1,#12
        0x00000988:    4008        .@      ANDS     r0,r0,r1
        0x0000098a:    0b05        ..      LSRS     r5,r0,#12
        0x0000098c:    e00f        ..      B        0x9ae ; TIMER_GetModuleClock + 90
        0x0000098e:    4815        .H      LDR      r0,[pc,#84] ; [0x9e4] = 0x40051000
        0x00000990:    4284        .B      CMP      r4,r0
        0x00000992:    d106        ..      BNE      0x9a2 ; TIMER_GetModuleClock + 78
        0x00000994:    4812        .H      LDR      r0,[pc,#72] ; [0x9e0] = 0x40000200
        0x00000996:    6940        @i      LDR      r0,[r0,#0x14]
        0x00000998:    2107        .!      MOVS     r1,#7
        0x0000099a:    0409        ..      LSLS     r1,r1,#16
        0x0000099c:    4008        .@      ANDS     r0,r0,r1
        0x0000099e:    0c05        ..      LSRS     r5,r0,#16
        0x000009a0:    e005        ..      B        0x9ae ; TIMER_GetModuleClock + 90
        0x000009a2:    480f        .H      LDR      r0,[pc,#60] ; [0x9e0] = 0x40000200
        0x000009a4:    6940        @i      LDR      r0,[r0,#0x14]
        0x000009a6:    2107        .!      MOVS     r1,#7
        0x000009a8:    0509        ..      LSLS     r1,r1,#20
        0x000009aa:    4008        .@      ANDS     r0,r0,r1
        0x000009ac:    0d05        ..      LSRS     r5,r0,#20
        0x000009ae:    2d02        .-      CMP      r5,#2
        0x000009b0:    d10d        ..      BNE      0x9ce ; TIMER_GetModuleClock + 122
        0x000009b2:    480a        .H      LDR      r0,[pc,#40] ; [0x9dc] = 0x40050000
        0x000009b4:    4284        .B      CMP      r4,r0
        0x000009b6:    d003        ..      BEQ      0x9c0 ; TIMER_GetModuleClock + 108
        0x000009b8:    4808        .H      LDR      r0,[pc,#32] ; [0x9dc] = 0x40050000
        0x000009ba:    3020         0      ADDS     r0,r0,#0x20
        0x000009bc:    4284        .B      CMP      r4,r0
        0x000009be:    d103        ..      BNE      0x9c8 ; TIMER_GetModuleClock + 116
        0x000009c0:    f7fffc9a    ....    BL       CLK_GetPCLK0Freq ; 0x2f8
        0x000009c4:    b009        ..      ADD      sp,sp,#0x24
        0x000009c6:    bd30        0.      POP      {r4,r5,pc}
        0x000009c8:    f7fffca6    ....    BL       CLK_GetPCLK1Freq ; 0x318
        0x000009cc:    e7fa        ..      B        0x9c4 ; TIMER_GetModuleClock + 112
        0x000009ce:    00a8        ..      LSLS     r0,r5,#2
        0x000009d0:    a901        ..      ADD      r1,sp,#4
        0x000009d2:    5808        .X      LDR      r0,[r1,r0]
        0x000009d4:    e7f6        ..      B        0x9c4 ; TIMER_GetModuleClock + 112
    $d
        0x000009d6:    0000        ..      DCW    0
        0x000009d8:    00001838    8...    DCD    6200
        0x000009dc:    40050000    ...@    DCD    1074069504
        0x000009e0:    40000200    ...@    DCD    1073742336
        0x000009e4:    40051000    ...@    DCD    1074073600
    $t
    i.TIMER_Open
    TIMER_Open
        0x000009e8:    b5f7        ..      PUSH     {r0-r2,r4-r7,lr}
        0x000009ea:    b082        ..      SUB      sp,sp,#8
        0x000009ec:    4606        .F      MOV      r6,r0
        0x000009ee:    4617        .F      MOV      r7,r2
        0x000009f0:    4630        0F      MOV      r0,r6
        0x000009f2:    f7ffffaf    ....    BL       TIMER_GetModuleClock ; 0x954
        0x000009f6:    9001        ..      STR      r0,[sp,#4]
        0x000009f8:    2400        .$      MOVS     r4,#0
        0x000009fa:    2500        .%      MOVS     r5,#0
        0x000009fc:    9801        ..      LDR      r0,[sp,#4]
        0x000009fe:    0840        @.      LSRS     r0,r0,#1
        0x00000a00:    42b8        .B      CMP      r0,r7
        0x00000a02:    d801        ..      BHI      0xa08 ; TIMER_Open + 32
        0x00000a04:    2402        .$      MOVS     r4,#2
        0x00000a06:    e00c        ..      B        0xa22 ; TIMER_Open + 58
        0x00000a08:    4639        9F      MOV      r1,r7
        0x00000a0a:    9801        ..      LDR      r0,[sp,#4]
        0x00000a0c:    f7fffb9e    ....    BL       __aeabi_uidiv ; 0x14c
        0x00000a10:    4604        .F      MOV      r4,r0
        0x00000a12:    0e25        %.      LSRS     r5,r4,#24
        0x00000a14:    2d00        .-      CMP      r5,#0
        0x00000a16:    d004        ..      BEQ      0xa22 ; TIMER_Open + 58
        0x00000a18:    1c69        i.      ADDS     r1,r5,#1
        0x00000a1a:    4620         F      MOV      r0,r4
        0x00000a1c:    f7fffb96    ....    BL       __aeabi_uidiv ; 0x14c
        0x00000a20:    4604        .F      MOV      r4,r0
        0x00000a22:    9803        ..      LDR      r0,[sp,#0xc]
        0x00000a24:    4328        (C      ORRS     r0,r0,r5
        0x00000a26:    6030        0`      STR      r0,[r6,#0]
        0x00000a28:    6074        t`      STR      r4,[r6,#4]
        0x00000a2a:    1c68        h.      ADDS     r0,r5,#1
        0x00000a2c:    4360        `C      MULS     r0,r4,r0
        0x00000a2e:    4601        .F      MOV      r1,r0
        0x00000a30:    9801        ..      LDR      r0,[sp,#4]
        0x00000a32:    f7fffb8b    ....    BL       __aeabi_uidiv ; 0x14c
        0x00000a36:    b005        ..      ADD      sp,sp,#0x14
        0x00000a38:    bdf0        ..      POP      {r4-r7,pc}
    i.TIMER_Start
    TIMER_Start
        0x00000a3a:    6801        .h      LDR      r1,[r0,#0]
        0x00000a3c:    2201        ."      MOVS     r2,#1
        0x00000a3e:    0792        ..      LSLS     r2,r2,#30
        0x00000a40:    4311        .C      ORRS     r1,r1,r2
        0x00000a42:    6001        .`      STR      r1,[r0,#0]
        0x00000a44:    4770        pG      BX       lr
        0x00000a46:    0000        ..      MOVS     r0,r0
    i.TMR0_IRQHandler
    TMR0_IRQHandler
        0x00000a48:    b500        ..      PUSH     {lr}
        0x00000a4a:    bf00        ..      NOP      
        0x00000a4c:    4811        .H      LDR      r0,[pc,#68] ; [0xa94] = 0x40050000
        0x00000a4e:    6880        .h      LDR      r0,[r0,#8]
        0x00000a50:    07c0        ..      LSLS     r0,r0,#31
        0x00000a52:    0fc0        ..      LSRS     r0,r0,#31
        0x00000a54:    2800        .(      CMP      r0,#0
        0x00000a56:    d01b        ..      BEQ      0xa90 ; TMR0_IRQHandler + 72
        0x00000a58:    480f        .H      LDR      r0,[pc,#60] ; [0xa98] = 0x2000002c
        0x00000a5a:    6800        .h      LDR      r0,[r0,#0]
        0x00000a5c:    1c40        @.      ADDS     r0,r0,#1
        0x00000a5e:    490e        .I      LDR      r1,[pc,#56] ; [0xa98] = 0x2000002c
        0x00000a60:    6008        .`      STR      r0,[r1,#0]
        0x00000a62:    4608        .F      MOV      r0,r1
        0x00000a64:    6800        .h      LDR      r0,[r0,#0]
        0x00000a66:    217d        }!      MOVS     r1,#0x7d
        0x00000a68:    00c9        ..      LSLS     r1,r1,#3
        0x00000a6a:    4288        .B      CMP      r0,r1
        0x00000a6c:    d10a        ..      BNE      0xa84 ; TMR0_IRQHandler + 60
        0x00000a6e:    2000        .       MOVS     r0,#0
        0x00000a70:    4909        .I      LDR      r1,[pc,#36] ; [0xa98] = 0x2000002c
        0x00000a72:    6008        .`      STR      r0,[r1,#0]
        0x00000a74:    4809        .H      LDR      r0,[pc,#36] ; [0xa9c] = 0x20000014
        0x00000a76:    6800        .h      LDR      r0,[r0,#0]
        0x00000a78:    2104        .!      MOVS     r1,#4
        0x00000a7a:    4308        .C      ORRS     r0,r0,r1
        0x00000a7c:    4907        .I      LDR      r1,[pc,#28] ; [0xa9c] = 0x20000014
        0x00000a7e:    6008        .`      STR      r0,[r1,#0]
        0x00000a80:    f000fe78    ..x.    BL       stop_timer0 ; 0x1774
        0x00000a84:    4805        .H      LDR      r0,[pc,#20] ; [0xa9c] = 0x20000014
        0x00000a86:    6800        .h      LDR      r0,[r0,#0]
        0x00000a88:    2108        .!      MOVS     r1,#8
        0x00000a8a:    4388        .C      BICS     r0,r0,r1
        0x00000a8c:    4903        .I      LDR      r1,[pc,#12] ; [0xa9c] = 0x20000014
        0x00000a8e:    6008        .`      STR      r0,[r1,#0]
        0x00000a90:    bd00        ..      POP      {pc}
    $d
        0x00000a92:    0000        ..      DCW    0
        0x00000a94:    40050000    ...@    DCD    1074069504
        0x00000a98:    2000002c    ,..     DCD    536870956
        0x00000a9c:    20000014    ...     DCD    536870932
    $t
    i.TMR1_IRQHandler
    TMR1_IRQHandler
        0x00000aa0:    b510        ..      PUSH     {r4,lr}
        0x00000aa2:    bf00        ..      NOP      
        0x00000aa4:    480f        .H      LDR      r0,[pc,#60] ; [0xae4] = 0x40050020
        0x00000aa6:    6880        .h      LDR      r0,[r0,#8]
        0x00000aa8:    07c0        ..      LSLS     r0,r0,#31
        0x00000aaa:    0fc0        ..      LSRS     r0,r0,#31
        0x00000aac:    2800        .(      CMP      r0,#0
        0x00000aae:    d017        ..      BEQ      0xae0 ; TMR1_IRQHandler + 64
        0x00000ab0:    bf00        ..      NOP      
        0x00000ab2:    2001        .       MOVS     r0,#1
        0x00000ab4:    490b        .I      LDR      r1,[pc,#44] ; [0xae4] = 0x40050020
        0x00000ab6:    6088        .`      STR      r0,[r1,#8]
        0x00000ab8:    bf00        ..      NOP      
        0x00000aba:    f000fe7d    ..}.    BL       tick_counter ; 0x17b8
        0x00000abe:    f000fd35    ..5.    BL       get_tick ; 0x152c
        0x00000ac2:    4604        .F      MOV      r4,r0
        0x00000ac4:    217d        }!      MOVS     r1,#0x7d
        0x00000ac6:    00c9        ..      LSLS     r1,r1,#3
        0x00000ac8:    f7fffb40    ..@.    BL       __aeabi_uidiv ; 0x14c
        0x00000acc:    2900        .)      CMP      r1,#0
        0x00000ace:    d105        ..      BNE      0xadc ; TMR1_IRQHandler + 60
        0x00000ad0:    4805        .H      LDR      r0,[pc,#20] ; [0xae8] = 0x20000014
        0x00000ad2:    6800        .h      LDR      r0,[r0,#0]
        0x00000ad4:    2102        .!      MOVS     r1,#2
        0x00000ad6:    4308        .C      ORRS     r0,r0,r1
        0x00000ad8:    4903        .I      LDR      r1,[pc,#12] ; [0xae8] = 0x20000014
        0x00000ada:    6008        .`      STR      r0,[r1,#0]
        0x00000adc:    f000fd26    ..&.    BL       get_tick ; 0x152c
        0x00000ae0:    bd10        ..      POP      {r4,pc}
    $d
        0x00000ae2:    0000        ..      DCW    0
        0x00000ae4:    40050020     ..@    DCD    1074069536
        0x00000ae8:    20000014    ...     DCD    536870932
    $t
    i.UART02_IRQHandler
    UART02_IRQHandler
        0x00000aec:    b510        ..      PUSH     {r4,lr}
        0x00000aee:    4811        .H      LDR      r0,[pc,#68] ; [0xb34] = 0x40070000
        0x00000af0:    69c0        .i      LDR      r0,[r0,#0x1c]
        0x00000af2:    2111        .!      MOVS     r1,#0x11
        0x00000af4:    0209        ..      LSLS     r1,r1,#8
        0x00000af6:    4008        .@      ANDS     r0,r0,r1
        0x00000af8:    2800        .(      CMP      r0,#0
        0x00000afa:    d001        ..      BEQ      0xb00 ; UART02_IRQHandler + 20
        0x00000afc:    2001        .       MOVS     r0,#1
        0x00000afe:    e000        ..      B        0xb02 ; UART02_IRQHandler + 22
        0x00000b00:    2000        .       MOVS     r0,#0
        0x00000b02:    2800        .(      CMP      r0,#0
        0x00000b04:    d009        ..      BEQ      0xb1a ; UART02_IRQHandler + 46
        0x00000b06:    e001        ..      B        0xb0c ; UART02_IRQHandler + 32
        0x00000b08:    f000f9b4    ....    BL       UARTx_Process ; 0xe74
        0x00000b0c:    4809        .H      LDR      r0,[pc,#36] ; [0xb34] = 0x40070000
        0x00000b0e:    6980        .i      LDR      r0,[r0,#0x18]
        0x00000b10:    2101        .!      MOVS     r1,#1
        0x00000b12:    0389        ..      LSLS     r1,r1,#14
        0x00000b14:    4008        .@      ANDS     r0,r0,r1
        0x00000b16:    2800        .(      CMP      r0,#0
        0x00000b18:    d0f6        ..      BEQ      0xb08 ; UART02_IRQHandler + 28
        0x00000b1a:    4806        .H      LDR      r0,[pc,#24] ; [0xb34] = 0x40070000
        0x00000b1c:    6980        .i      LDR      r0,[r0,#0x18]
        0x00000b1e:    2171        q!      MOVS     r1,#0x71
        0x00000b20:    4008        .@      ANDS     r0,r0,r1
        0x00000b22:    2800        .(      CMP      r0,#0
        0x00000b24:    d004        ..      BEQ      0xb30 ; UART02_IRQHandler + 68
        0x00000b26:    2109        .!      MOVS     r1,#9
        0x00000b28:    0289        ..      LSLS     r1,r1,#10
        0x00000b2a:    4802        .H      LDR      r0,[pc,#8] ; [0xb34] = 0x40070000
        0x00000b2c:    f000f87e    ..~.    BL       UART_ClearIntFlag ; 0xc2c
        0x00000b30:    bd10        ..      POP      {r4,pc}
    $d
        0x00000b32:    0000        ..      DCW    0
        0x00000b34:    40070000    ...@    DCD    1074200576
    $t
    i.UART0_Init
    UART0_Init
        0x00000b38:    b510        ..      PUSH     {r4,lr}
        0x00000b3a:    4819        .H      LDR      r0,[pc,#100] ; [0xba0] = 0x4000010
        0x00000b3c:    f7fffe0a    ....    BL       SYS_ResetModule ; 0x754
        0x00000b40:    21e1        .!      MOVS     r1,#0xe1
        0x00000b42:    0249        I.      LSLS     r1,r1,#9
        0x00000b44:    4817        .H      LDR      r0,[pc,#92] ; [0xba4] = 0x40070000
        0x00000b46:    f000f8a1    ....    BL       UART_Open ; 0xc8c
        0x00000b4a:    2111        .!      MOVS     r1,#0x11
        0x00000b4c:    4815        .H      LDR      r0,[pc,#84] ; [0xba4] = 0x40070000
        0x00000b4e:    f000f899    ....    BL       UART_EnableInt ; 0xc84
        0x00000b52:    200c        .       MOVS     r0,#0xc
        0x00000b54:    f7fffd5e    ..^.    BL       NVIC_EnableIRQ ; 0x614
        0x00000b58:    f7fffbac    ....    BL       CLK_GetCPUFreq ; 0x2b4
        0x00000b5c:    4604        .F      MOV      r4,r0
        0x00000b5e:    4621        !F      MOV      r1,r4
        0x00000b60:    a011        ..      ADR      r0,{pc}+0x48 ; 0xba8
        0x00000b62:    f000f993    ....    BL       __0printf$8 ; 0xe8c
        0x00000b66:    f7fffbad    ....    BL       CLK_GetHXTFreq ; 0x2c4
        0x00000b6a:    4604        .F      MOV      r4,r0
        0x00000b6c:    4621        !F      MOV      r1,r4
        0x00000b6e:    a015        ..      ADR      r0,{pc}+0x56 ; 0xbc4
        0x00000b70:    f000f98c    ....    BL       __0printf$8 ; 0xe8c
        0x00000b74:    f7fffbb4    ....    BL       CLK_GetLXTFreq ; 0x2e0
        0x00000b78:    4604        .F      MOV      r4,r0
        0x00000b7a:    4621        !F      MOV      r1,r4
        0x00000b7c:    a017        ..      ADR      r0,{pc}+0x60 ; 0xbdc
        0x00000b7e:    f000f985    ....    BL       __0printf$8 ; 0xe8c
        0x00000b82:    f7fffbb9    ....    BL       CLK_GetPCLK0Freq ; 0x2f8
        0x00000b86:    4604        .F      MOV      r4,r0
        0x00000b88:    4621        !F      MOV      r1,r4
        0x00000b8a:    a01a        ..      ADR      r0,{pc}+0x6a ; 0xbf4
        0x00000b8c:    f000f97e    ..~.    BL       __0printf$8 ; 0xe8c
        0x00000b90:    f7fffbc2    ....    BL       CLK_GetPCLK1Freq ; 0x318
        0x00000b94:    4604        .F      MOV      r4,r0
        0x00000b96:    4621        !F      MOV      r1,r4
        0x00000b98:    a01d        ..      ADR      r0,{pc}+0x78 ; 0xc10
        0x00000b9a:    f000f977    ..w.    BL       __0printf$8 ; 0xe8c
        0x00000b9e:    bd10        ..      POP      {r4,pc}
    $d
        0x00000ba0:    04000010    ....    DCD    67108880
        0x00000ba4:    40070000    ...@    DCD    1074200576
        0x00000ba8:    4c430a0d    ..CL    DCD    1279461901
        0x00000bac:    65475f4b    K_Ge    DCD    1699176267
        0x00000bb0:    55504374    tCPU    DCD    1431323508
        0x00000bb4:    71657246    Freq    DCD    1902473798
        0x00000bb8:    25203a20     : %    DCD    622869024
        0x00000bbc:    0a0d6438    8d..    DCD    168649784
        0x00000bc0:    00000000    ....    DCD    0
        0x00000bc4:    5f4b4c43    CLK_    DCD    1598770243
        0x00000bc8:    48746547    GetH    DCD    1215587655
        0x00000bcc:    72465458    XTFr    DCD    1917211736
        0x00000bd0:    3a207165    eq :    DCD    975204709
        0x00000bd4:    64382520     %8d    DCD    1681401120
        0x00000bd8:    00000a0d    ....    DCD    2573
        0x00000bdc:    5f4b4c43    CLK_    DCD    1598770243
        0x00000be0:    4c746547    GetL    DCD    1282696519
        0x00000be4:    72465458    XTFr    DCD    1917211736
        0x00000be8:    3a207165    eq :    DCD    975204709
        0x00000bec:    64382520     %8d    DCD    1681401120
        0x00000bf0:    00000a0d    ....    DCD    2573
        0x00000bf4:    5f4b4c43    CLK_    DCD    1598770243
        0x00000bf8:    50746547    GetP    DCD    1349805383
        0x00000bfc:    304b4c43    CLK0    DCD    810241091
        0x00000c00:    71657246    Freq    DCD    1902473798
        0x00000c04:    25203a20     : %    DCD    622869024
        0x00000c08:    0a0d6438    8d..    DCD    168649784
        0x00000c0c:    00000000    ....    DCD    0
        0x00000c10:    5f4b4c43    CLK_    DCD    1598770243
        0x00000c14:    50746547    GetP    DCD    1349805383
        0x00000c18:    314b4c43    CLK1    DCD    827018307
        0x00000c1c:    71657246    Freq    DCD    1902473798
        0x00000c20:    25203a20     : %    DCD    622869024
        0x00000c24:    0a0d6438    8d..    DCD    168649784
        0x00000c28:    00000000    ....    DCD    0
    $t
    i.UART_ClearIntFlag
    UART_ClearIntFlag
        0x00000c2c:    2201        ."      MOVS     r2,#1
        0x00000c2e:    0612        ..      LSLS     r2,r2,#24
        0x00000c30:    400a        .@      ANDS     r2,r2,r1
        0x00000c32:    2a00        .*      CMP      r2,#0
        0x00000c34:    d002        ..      BEQ      0xc3c ; UART_ClearIntFlag + 16
        0x00000c36:    2201        ."      MOVS     r2,#1
        0x00000c38:    0412        ..      LSLS     r2,r2,#16
        0x00000c3a:    61c2        .a      STR      r2,[r0,#0x1c]
        0x00000c3c:    2201        ."      MOVS     r2,#1
        0x00000c3e:    0292        ..      LSLS     r2,r2,#10
        0x00000c40:    400a        .@      ANDS     r2,r2,r1
        0x00000c42:    2a00        .*      CMP      r2,#0
        0x00000c44:    d003        ..      BEQ      0xc4e ; UART_ClearIntFlag + 34
        0x00000c46:    2270        p"      MOVS     r2,#0x70
        0x00000c48:    6182        .a      STR      r2,[r0,#0x18]
        0x00000c4a:    2208        ."      MOVS     r2,#8
        0x00000c4c:    6182        .a      STR      r2,[r0,#0x18]
        0x00000c4e:    2201        ."      MOVS     r2,#1
        0x00000c50:    02d2        ..      LSLS     r2,r2,#11
        0x00000c52:    400a        .@      ANDS     r2,r2,r1
        0x00000c54:    2a00        .*      CMP      r2,#0
        0x00000c56:    d003        ..      BEQ      0xc60 ; UART_ClearIntFlag + 52
        0x00000c58:    6942        Bi      LDR      r2,[r0,#0x14]
        0x00000c5a:    2301        .#      MOVS     r3,#1
        0x00000c5c:    431a        .C      ORRS     r2,r2,r3
        0x00000c5e:    6142        Ba      STR      r2,[r0,#0x14]
        0x00000c60:    2201        ."      MOVS     r2,#1
        0x00000c62:    0352        R.      LSLS     r2,r2,#13
        0x00000c64:    400a        .@      ANDS     r2,r2,r1
        0x00000c66:    2a00        .*      CMP      r2,#0
        0x00000c68:    d001        ..      BEQ      0xc6e ; UART_ClearIntFlag + 66
        0x00000c6a:    4a05        .J      LDR      r2,[pc,#20] ; [0xc80] = 0x1000001
        0x00000c6c:    6182        .a      STR      r2,[r0,#0x18]
        0x00000c6e:    2201        ."      MOVS     r2,#1
        0x00000c70:    0392        ..      LSLS     r2,r2,#14
        0x00000c72:    400a        .@      ANDS     r2,r2,r1
        0x00000c74:    2a00        .*      CMP      r2,#0
        0x00000c76:    d001        ..      BEQ      0xc7c ; UART_ClearIntFlag + 80
        0x00000c78:    221f        ."      MOVS     r2,#0x1f
        0x00000c7a:    6442        Bd      STR      r2,[r0,#0x44]
        0x00000c7c:    4770        pG      BX       lr
    $d
        0x00000c7e:    0000        ..      DCW    0
        0x00000c80:    01000001    ....    DCD    16777217
    $t
    i.UART_EnableInt
    UART_EnableInt
        0x00000c84:    6842        Bh      LDR      r2,[r0,#4]
        0x00000c86:    430a        .C      ORRS     r2,r2,r1
        0x00000c88:    6042        B`      STR      r2,[r0,#4]
        0x00000c8a:    4770        pG      BX       lr
    i.UART_Open
    UART_Open
        0x00000c8c:    b5f0        ..      PUSH     {r4-r7,lr}
        0x00000c8e:    b089        ..      SUB      sp,sp,#0x24
        0x00000c90:    4604        .F      MOV      r4,r0
        0x00000c92:    460e        .F      MOV      r6,r1
        0x00000c94:    2500        .%      MOVS     r5,#0
        0x00000c96:    2700        .'      MOVS     r7,#0
        0x00000c98:    2218        ."      MOVS     r2,#0x18
        0x00000c9a:    496a        jI      LDR      r1,[pc,#424] ; [0xe44] = 0x1858
        0x00000c9c:    a803        ..      ADD      r0,sp,#0xc
        0x00000c9e:    f7fffa6b    ..k.    BL       __aeabi_memcpy ; 0x178
        0x00000ca2:    2000        .       MOVS     r0,#0
        0x00000ca4:    9002        ..      STR      r0,[sp,#8]
        0x00000ca6:    4868        hH      LDR      r0,[pc,#416] ; [0xe48] = 0x40070000
        0x00000ca8:    4284        .B      CMP      r4,r0
        0x00000caa:    d10b        ..      BNE      0xcc4 ; UART_Open + 56
        0x00000cac:    4867        gH      LDR      r0,[pc,#412] ; [0xe4c] = 0x40000200
        0x00000cae:    6940        @i      LDR      r0,[r0,#0x14]
        0x00000cb0:    0221        !.      LSLS     r1,r4,#8
        0x00000cb2:    4008        .@      ANDS     r0,r0,r1
        0x00000cb4:    0e05        ..      LSRS     r5,r0,#24
        0x00000cb6:    4865        eH      LDR      r0,[pc,#404] ; [0xe4c] = 0x40000200
        0x00000cb8:    6a00        .j      LDR      r0,[r0,#0x20]
        0x00000cba:    210f        .!      MOVS     r1,#0xf
        0x00000cbc:    0209        ..      LSLS     r1,r1,#8
        0x00000cbe:    4008        .@      ANDS     r0,r0,r1
        0x00000cc0:    0a07        ..      LSRS     r7,r0,#8
        0x00000cc2:    e06b        k.      B        0xd9c ; UART_Open + 272
        0x00000cc4:    4862        bH      LDR      r0,[pc,#392] ; [0xe50] = 0x40071000
        0x00000cc6:    4284        .B      CMP      r4,r0
        0x00000cc8:    d10c        ..      BNE      0xce4 ; UART_Open + 88
        0x00000cca:    4860        `H      LDR      r0,[pc,#384] ; [0xe4c] = 0x40000200
        0x00000ccc:    6940        @i      LDR      r0,[r0,#0x14]
        0x00000cce:    2107        .!      MOVS     r1,#7
        0x00000cd0:    0709        ..      LSLS     r1,r1,#28
        0x00000cd2:    4008        .@      ANDS     r0,r0,r1
        0x00000cd4:    0f05        ..      LSRS     r5,r0,#28
        0x00000cd6:    485d        ]H      LDR      r0,[pc,#372] ; [0xe4c] = 0x40000200
        0x00000cd8:    6a00        .j      LDR      r0,[r0,#0x20]
        0x00000cda:    210f        .!      MOVS     r1,#0xf
        0x00000cdc:    0309        ..      LSLS     r1,r1,#12
        0x00000cde:    4008        .@      ANDS     r0,r0,r1
        0x00000ce0:    0b07        ..      LSRS     r7,r0,#12
        0x00000ce2:    e05b        [.      B        0xd9c ; UART_Open + 272
        0x00000ce4:    485b        [H      LDR      r0,[pc,#364] ; [0xe54] = 0x40072000
        0x00000ce6:    4284        .B      CMP      r4,r0
        0x00000ce8:    d10a        ..      BNE      0xd00 ; UART_Open + 116
        0x00000cea:    4858        XH      LDR      r0,[pc,#352] ; [0xe4c] = 0x40000200
        0x00000cec:    69c0        .i      LDR      r0,[r0,#0x1c]
        0x00000cee:    2107        .!      MOVS     r1,#7
        0x00000cf0:    0609        ..      LSLS     r1,r1,#24
        0x00000cf2:    4008        .@      ANDS     r0,r0,r1
        0x00000cf4:    0e05        ..      LSRS     r5,r0,#24
        0x00000cf6:    4855        UH      LDR      r0,[pc,#340] ; [0xe4c] = 0x40000200
        0x00000cf8:    6b00        .k      LDR      r0,[r0,#0x30]
        0x00000cfa:    0707        ..      LSLS     r7,r0,#28
        0x00000cfc:    0f3f        ?.      LSRS     r7,r7,#28
        0x00000cfe:    e04d        M.      B        0xd9c ; UART_Open + 272
        0x00000d00:    4855        UH      LDR      r0,[pc,#340] ; [0xe58] = 0x40073000
        0x00000d02:    4284        .B      CMP      r4,r0
        0x00000d04:    d10b        ..      BNE      0xd1e ; UART_Open + 146
        0x00000d06:    4851        QH      LDR      r0,[pc,#324] ; [0xe4c] = 0x40000200
        0x00000d08:    69c0        .i      LDR      r0,[r0,#0x1c]
        0x00000d0a:    2107        .!      MOVS     r1,#7
        0x00000d0c:    0709        ..      LSLS     r1,r1,#28
        0x00000d0e:    4008        .@      ANDS     r0,r0,r1
        0x00000d10:    0f05        ..      LSRS     r5,r0,#28
        0x00000d12:    484e        NH      LDR      r0,[pc,#312] ; [0xe4c] = 0x40000200
        0x00000d14:    6b00        .k      LDR      r0,[r0,#0x30]
        0x00000d16:    21f0        .!      MOVS     r1,#0xf0
        0x00000d18:    4008        .@      ANDS     r0,r0,r1
        0x00000d1a:    0907        ..      LSRS     r7,r0,#4
        0x00000d1c:    e03e        >.      B        0xd9c ; UART_Open + 272
        0x00000d1e:    484f        OH      LDR      r0,[pc,#316] ; [0xe5c] = 0x40074000
        0x00000d20:    4284        .B      CMP      r4,r0
        0x00000d22:    d10c        ..      BNE      0xd3e ; UART_Open + 178
        0x00000d24:    4849        IH      LDR      r0,[pc,#292] ; [0xe4c] = 0x40000200
        0x00000d26:    69c0        .i      LDR      r0,[r0,#0x1c]
        0x00000d28:    2107        .!      MOVS     r1,#7
        0x00000d2a:    0409        ..      LSLS     r1,r1,#16
        0x00000d2c:    4008        .@      ANDS     r0,r0,r1
        0x00000d2e:    0c05        ..      LSRS     r5,r0,#16
        0x00000d30:    4846        FH      LDR      r0,[pc,#280] ; [0xe4c] = 0x40000200
        0x00000d32:    6b00        .k      LDR      r0,[r0,#0x30]
        0x00000d34:    210f        .!      MOVS     r1,#0xf
        0x00000d36:    0209        ..      LSLS     r1,r1,#8
        0x00000d38:    4008        .@      ANDS     r0,r0,r1
        0x00000d3a:    0a07        ..      LSRS     r7,r0,#8
        0x00000d3c:    e02e        ..      B        0xd9c ; UART_Open + 272
        0x00000d3e:    4848        HH      LDR      r0,[pc,#288] ; [0xe60] = 0x40075000
        0x00000d40:    4284        .B      CMP      r4,r0
        0x00000d42:    d10c        ..      BNE      0xd5e ; UART_Open + 210
        0x00000d44:    4841        AH      LDR      r0,[pc,#260] ; [0xe4c] = 0x40000200
        0x00000d46:    69c0        .i      LDR      r0,[r0,#0x1c]
        0x00000d48:    2107        .!      MOVS     r1,#7
        0x00000d4a:    0509        ..      LSLS     r1,r1,#20
        0x00000d4c:    4008        .@      ANDS     r0,r0,r1
        0x00000d4e:    0d05        ..      LSRS     r5,r0,#20
        0x00000d50:    483e        >H      LDR      r0,[pc,#248] ; [0xe4c] = 0x40000200
        0x00000d52:    6b00        .k      LDR      r0,[r0,#0x30]
        0x00000d54:    210f        .!      MOVS     r1,#0xf
        0x00000d56:    0309        ..      LSLS     r1,r1,#12
        0x00000d58:    4008        .@      ANDS     r0,r0,r1
        0x00000d5a:    0b07        ..      LSRS     r7,r0,#12
        0x00000d5c:    e01e        ..      B        0xd9c ; UART_Open + 272
        0x00000d5e:    4841        AH      LDR      r0,[pc,#260] ; [0xe64] = 0x40076000
        0x00000d60:    4284        .B      CMP      r4,r0
        0x00000d62:    d10c        ..      BNE      0xd7e ; UART_Open + 242
        0x00000d64:    4839        9H      LDR      r0,[pc,#228] ; [0xe4c] = 0x40000200
        0x00000d66:    69c0        .i      LDR      r0,[r0,#0x1c]
        0x00000d68:    2107        .!      MOVS     r1,#7
        0x00000d6a:    0209        ..      LSLS     r1,r1,#8
        0x00000d6c:    4008        .@      ANDS     r0,r0,r1
        0x00000d6e:    0a05        ..      LSRS     r5,r0,#8
        0x00000d70:    4836        6H      LDR      r0,[pc,#216] ; [0xe4c] = 0x40000200
        0x00000d72:    6b00        .k      LDR      r0,[r0,#0x30]
        0x00000d74:    210f        .!      MOVS     r1,#0xf
        0x00000d76:    0409        ..      LSLS     r1,r1,#16
        0x00000d78:    4008        .@      ANDS     r0,r0,r1
        0x00000d7a:    0c07        ..      LSRS     r7,r0,#16
        0x00000d7c:    e00e        ..      B        0xd9c ; UART_Open + 272
        0x00000d7e:    483a        :H      LDR      r0,[pc,#232] ; [0xe68] = 0x40077000
        0x00000d80:    4284        .B      CMP      r4,r0
        0x00000d82:    d10b        ..      BNE      0xd9c ; UART_Open + 272
        0x00000d84:    4831        1H      LDR      r0,[pc,#196] ; [0xe4c] = 0x40000200
        0x00000d86:    69c0        .i      LDR      r0,[r0,#0x1c]
        0x00000d88:    2107        .!      MOVS     r1,#7
        0x00000d8a:    0309        ..      LSLS     r1,r1,#12
        0x00000d8c:    4008        .@      ANDS     r0,r0,r1
        0x00000d8e:    0b05        ..      LSRS     r5,r0,#12
        0x00000d90:    482e        .H      LDR      r0,[pc,#184] ; [0xe4c] = 0x40000200
        0x00000d92:    6b00        .k      LDR      r0,[r0,#0x30]
        0x00000d94:    210f        .!      MOVS     r1,#0xf
        0x00000d96:    0509        ..      LSLS     r1,r1,#20
        0x00000d98:    4008        .@      ANDS     r0,r0,r1
        0x00000d9a:    0d07        ..      LSRS     r7,r0,#20
        0x00000d9c:    2000        .       MOVS     r0,#0
        0x00000d9e:    6320         c      STR      r0,[r4,#0x30]
        0x00000da0:    2003        .       MOVS     r0,#3
        0x00000da2:    60e0        .`      STR      r0,[r4,#0xc]
        0x00000da4:    68a0        .h      LDR      r0,[r4,#8]
        0x00000da6:    4931        1I      LDR      r1,[pc,#196] ; [0xe6c] = 0xfff0ff0f
        0x00000da8:    4008        .@      ANDS     r0,r0,r1
        0x00000daa:    60a0        .`      STR      r0,[r4,#8]
        0x00000dac:    2d01        .-      CMP      r5,#1
        0x00000dae:    d104        ..      BNE      0xdba ; UART_Open + 302
        0x00000db0:    f7fffb02    ....    BL       CLK_GetPLLClockFreq ; 0x3b8
        0x00000db4:    00a9        ..      LSLS     r1,r5,#2
        0x00000db6:    aa03        ..      ADD      r2,sp,#0xc
        0x00000db8:    5050        PP      STR      r0,[r2,r1]
        0x00000dba:    2d04        .-      CMP      r5,#4
        0x00000dbc:    d116        ..      BNE      0xdec ; UART_Open + 352
        0x00000dbe:    4822        "H      LDR      r0,[pc,#136] ; [0xe48] = 0x40070000
        0x00000dc0:    4284        .B      CMP      r4,r0
        0x00000dc2:    d008        ..      BEQ      0xdd6 ; UART_Open + 330
        0x00000dc4:    4823        #H      LDR      r0,[pc,#140] ; [0xe54] = 0x40072000
        0x00000dc6:    4284        .B      CMP      r4,r0
        0x00000dc8:    d005        ..      BEQ      0xdd6 ; UART_Open + 330
        0x00000dca:    4824        $H      LDR      r0,[pc,#144] ; [0xe5c] = 0x40074000
        0x00000dcc:    4284        .B      CMP      r4,r0
        0x00000dce:    d002        ..      BEQ      0xdd6 ; UART_Open + 330
        0x00000dd0:    4824        $H      LDR      r0,[pc,#144] ; [0xe64] = 0x40076000
        0x00000dd2:    4284        .B      CMP      r4,r0
        0x00000dd4:    d105        ..      BNE      0xde2 ; UART_Open + 342
        0x00000dd6:    f7fffa8f    ....    BL       CLK_GetPCLK0Freq ; 0x2f8
        0x00000dda:    00a9        ..      LSLS     r1,r5,#2
        0x00000ddc:    aa03        ..      ADD      r2,sp,#0xc
        0x00000dde:    5050        PP      STR      r0,[r2,r1]
        0x00000de0:    e004        ..      B        0xdec ; UART_Open + 352
        0x00000de2:    f7fffa99    ....    BL       CLK_GetPCLK1Freq ; 0x318
        0x00000de6:    00a9        ..      LSLS     r1,r5,#2
        0x00000de8:    aa03        ..      ADD      r2,sp,#0xc
        0x00000dea:    5050        PP      STR      r0,[r2,r1]
        0x00000dec:    2e00        ..      CMP      r6,#0
        0x00000dee:    d026        &.      BEQ      0xe3e ; UART_Open + 434
        0x00000df0:    00a9        ..      LSLS     r1,r5,#2
        0x00000df2:    aa03        ..      ADD      r2,sp,#0xc
        0x00000df4:    5850        PX      LDR      r0,[r2,r1]
        0x00000df6:    1c79        y.      ADDS     r1,r7,#1
        0x00000df8:    f7fff9a8    ....    BL       __aeabi_uidiv ; 0x14c
        0x00000dfc:    0871        q.      LSRS     r1,r6,#1
        0x00000dfe:    1840        @.      ADDS     r0,r0,r1
        0x00000e00:    4631        1F      MOV      r1,r6
        0x00000e02:    9001        ..      STR      r0,[sp,#4]
        0x00000e04:    f7fff9a2    ....    BL       __aeabi_uidiv ; 0x14c
        0x00000e08:    1e80        ..      SUBS     r0,r0,#2
        0x00000e0a:    9002        ..      STR      r0,[sp,#8]
        0x00000e0c:    4918        .I      LDR      r1,[pc,#96] ; [0xe70] = 0xffff
        0x00000e0e:    9802        ..      LDR      r0,[sp,#8]
        0x00000e10:    4288        .B      CMP      r0,r1
        0x00000e12:    d90f        ..      BLS      0xe34 ; UART_Open + 424
        0x00000e14:    00a9        ..      LSLS     r1,r5,#2
        0x00000e16:    aa03        ..      ADD      r2,sp,#0xc
        0x00000e18:    5850        PX      LDR      r0,[r2,r1]
        0x00000e1a:    1c79        y.      ADDS     r1,r7,#1
        0x00000e1c:    f7fff996    ....    BL       __aeabi_uidiv ; 0x14c
        0x00000e20:    00f1        ..      LSLS     r1,r6,#3
        0x00000e22:    1840        @.      ADDS     r0,r0,r1
        0x00000e24:    4631        1F      MOV      r1,r6
        0x00000e26:    9001        ..      STR      r0,[sp,#4]
        0x00000e28:    f7fff990    ....    BL       __aeabi_uidiv ; 0x14c
        0x00000e2c:    0900        ..      LSRS     r0,r0,#4
        0x00000e2e:    1e80        ..      SUBS     r0,r0,#2
        0x00000e30:    6260        `b      STR      r0,[r4,#0x24]
        0x00000e32:    e004        ..      B        0xe3e ; UART_Open + 434
        0x00000e34:    2103        .!      MOVS     r1,#3
        0x00000e36:    0709        ..      LSLS     r1,r1,#28
        0x00000e38:    9802        ..      LDR      r0,[sp,#8]
        0x00000e3a:    4308        .C      ORRS     r0,r0,r1
        0x00000e3c:    6260        `b      STR      r0,[r4,#0x24]
        0x00000e3e:    b009        ..      ADD      sp,sp,#0x24
        0x00000e40:    bdf0        ..      POP      {r4-r7,pc}
    $d
        0x00000e42:    0000        ..      DCW    0
        0x00000e44:    00001858    X...    DCD    6232
        0x00000e48:    40070000    ...@    DCD    1074200576
        0x00000e4c:    40000200    ...@    DCD    1073742336
        0x00000e50:    40071000    ...@    DCD    1074204672
        0x00000e54:    40072000    . .@    DCD    1074208768
        0x00000e58:    40073000    .0.@    DCD    1074212864
        0x00000e5c:    40074000    .@.@    DCD    1074216960
        0x00000e60:    40075000    .P.@    DCD    1074221056
        0x00000e64:    40076000    .`.@    DCD    1074225152
        0x00000e68:    40077000    .p.@    DCD    1074229248
        0x00000e6c:    fff0ff0f    ....    DCD    4293984015
        0x00000e70:    0000ffff    ....    DCD    65535
    $t
    i.UARTx_Process
    UARTx_Process
        0x00000e74:    b510        ..      PUSH     {r4,lr}
        0x00000e76:    2400        .$      MOVS     r4,#0
        0x00000e78:    4803        .H      LDR      r0,[pc,#12] ; [0xe88] = 0x40070000
        0x00000e7a:    6800        .h      LDR      r0,[r0,#0]
        0x00000e7c:    b2c4        ..      UXTB     r4,r0
        0x00000e7e:    4620         F      MOV      r0,r4
        0x00000e80:    f000fbba    ....    BL       rx_rcv_irq ; 0x15f8
        0x00000e84:    bd10        ..      POP      {r4,pc}
    $d
        0x00000e86:    0000        ..      DCW    0
        0x00000e88:    40070000    ...@    DCD    1074200576
    $t
    i.__0printf$8
    __0printf$8
    __1printf$8
    __2printf
        0x00000e8c:    b40f        ..      PUSH     {r0-r3}
        0x00000e8e:    b510        ..      PUSH     {r4,lr}
        0x00000e90:    a903        ..      ADD      r1,sp,#0xc
        0x00000e92:    4b04        .K      LDR      r3,[pc,#16] ; [0xea4] = 0x1511
        0x00000e94:    4a04        .J      LDR      r2,[pc,#16] ; [0xea8] = 0x2000000c
        0x00000e96:    9802        ..      LDR      r0,[sp,#8]
        0x00000e98:    f000f818    ....    BL       _printf_core ; 0xecc
        0x00000e9c:    bc10        ..      POP      {r4}
        0x00000e9e:    bc08        ..      POP      {r3}
        0x00000ea0:    b004        ..      ADD      sp,sp,#0x10
        0x00000ea2:    4718        .G      BX       r3
    $d
        0x00000ea4:    00001511    ....    DCD    5393
        0x00000ea8:    2000000c    ...     DCD    536870924
    $t
    i.__scatterload_copy
    __scatterload_copy
        0x00000eac:    e002        ..      B        0xeb4 ; __scatterload_copy + 8
        0x00000eae:    c808        ..      LDM      r0!,{r3}
        0x00000eb0:    1f12        ..      SUBS     r2,r2,#4
        0x00000eb2:    c108        ..      STM      r1!,{r3}
        0x00000eb4:    2a00        .*      CMP      r2,#0
        0x00000eb6:    d1fa        ..      BNE      0xeae ; __scatterload_copy + 2
        0x00000eb8:    4770        pG      BX       lr
    i.__scatterload_null
    __scatterload_null
        0x00000eba:    4770        pG      BX       lr
    i.__scatterload_zeroinit
    __scatterload_zeroinit
        0x00000ebc:    2000        .       MOVS     r0,#0
        0x00000ebe:    e001        ..      B        0xec4 ; __scatterload_zeroinit + 8
        0x00000ec0:    c101        ..      STM      r1!,{r0}
        0x00000ec2:    1f12        ..      SUBS     r2,r2,#4
        0x00000ec4:    2a00        .*      CMP      r2,#0
        0x00000ec6:    d1fb        ..      BNE      0xec0 ; __scatterload_zeroinit + 4
        0x00000ec8:    4770        pG      BX       lr
        0x00000eca:    0000        ..      MOVS     r0,r0
    i._printf_core
    _printf_core
        0x00000ecc:    b5ff        ..      PUSH     {r0-r7,lr}
        0x00000ece:    b091        ..      SUB      sp,sp,#0x44
        0x00000ed0:    460f        .F      MOV      r7,r1
        0x00000ed2:    4605        .F      MOV      r5,r0
        0x00000ed4:    2600        .&      MOVS     r6,#0
        0x00000ed6:    e006        ..      B        0xee6 ; _printf_core + 26
        0x00000ed8:    2825        %(      CMP      r0,#0x25
        0x00000eda:    d00a        ..      BEQ      0xef2 ; _printf_core + 38
        0x00000edc:    9a14        ..      LDR      r2,[sp,#0x50]
        0x00000ede:    9913        ..      LDR      r1,[sp,#0x4c]
        0x00000ee0:    4790        .G      BLX      r2
        0x00000ee2:    1c6d        m.      ADDS     r5,r5,#1
        0x00000ee4:    1c76        v.      ADDS     r6,r6,#1
        0x00000ee6:    7828        (x      LDRB     r0,[r5,#0]
        0x00000ee8:    2800        .(      CMP      r0,#0
        0x00000eea:    d1f5        ..      BNE      0xed8 ; _printf_core + 12
        0x00000eec:    4630        0F      MOV      r0,r6
        0x00000eee:    b015        ..      ADD      sp,sp,#0x54
        0x00000ef0:    bdf0        ..      POP      {r4-r7,pc}
        0x00000ef2:    2400        .$      MOVS     r4,#0
        0x00000ef4:    9400        ..      STR      r4,[sp,#0]
        0x00000ef6:    2101        .!      MOVS     r1,#1
        0x00000ef8:    4af3        .J      LDR      r2,[pc,#972] ; [0x12c8] = 0x12809
        0x00000efa:    9402        ..      STR      r4,[sp,#8]
        0x00000efc:    e000        ..      B        0xf00 ; _printf_core + 52
        0x00000efe:    4304        .C      ORRS     r4,r4,r0
        0x00000f00:    1c6d        m.      ADDS     r5,r5,#1
        0x00000f02:    782b        +x      LDRB     r3,[r5,#0]
        0x00000f04:    4608        .F      MOV      r0,r1
        0x00000f06:    3b20         ;      SUBS     r3,r3,#0x20
        0x00000f08:    4098        .@      LSLS     r0,r0,r3
        0x00000f0a:    4210        .B      TST      r0,r2
        0x00000f0c:    d1f7        ..      BNE      0xefe ; _printf_core + 50
        0x00000f0e:    7828        (x      LDRB     r0,[r5,#0]
        0x00000f10:    282a        *(      CMP      r0,#0x2a
        0x00000f12:    d00e        ..      BEQ      0xf32 ; _printf_core + 102
        0x00000f14:    2102        .!      MOVS     r1,#2
        0x00000f16:    7828        (x      LDRB     r0,[r5,#0]
        0x00000f18:    4602        .F      MOV      r2,r0
        0x00000f1a:    3a30        0:      SUBS     r2,r2,#0x30
        0x00000f1c:    2a09        .*      CMP      r2,#9
        0x00000f1e:    d815        ..      BHI      0xf4c ; _printf_core + 128
        0x00000f20:    9a00        ..      LDR      r2,[sp,#0]
        0x00000f22:    230a        .#      MOVS     r3,#0xa
        0x00000f24:    435a        ZC      MULS     r2,r3,r2
        0x00000f26:    3a30        0:      SUBS     r2,r2,#0x30
        0x00000f28:    1880        ..      ADDS     r0,r0,r2
        0x00000f2a:    430c        .C      ORRS     r4,r4,r1
        0x00000f2c:    1c6d        m.      ADDS     r5,r5,#1
        0x00000f2e:    9000        ..      STR      r0,[sp,#0]
        0x00000f30:    e7f1        ..      B        0xf16 ; _printf_core + 74
        0x00000f32:    cf01        ..      LDM      r7!,{r0}
        0x00000f34:    9000        ..      STR      r0,[sp,#0]
        0x00000f36:    2800        .(      CMP      r0,#0
        0x00000f38:    da05        ..      BGE      0xf46 ; _printf_core + 122
        0x00000f3a:    2001        .       MOVS     r0,#1
        0x00000f3c:    0340        @.      LSLS     r0,r0,#13
        0x00000f3e:    4304        .C      ORRS     r4,r4,r0
        0x00000f40:    9800        ..      LDR      r0,[sp,#0]
        0x00000f42:    4240        @B      RSBS     r0,r0,#0
        0x00000f44:    9000        ..      STR      r0,[sp,#0]
        0x00000f46:    2002        .       MOVS     r0,#2
        0x00000f48:    4304        .C      ORRS     r4,r4,r0
        0x00000f4a:    1c6d        m.      ADDS     r5,r5,#1
        0x00000f4c:    7828        (x      LDRB     r0,[r5,#0]
        0x00000f4e:    282e        .(      CMP      r0,#0x2e
        0x00000f50:    d115        ..      BNE      0xf7e ; _printf_core + 178
        0x00000f52:    2004        .       MOVS     r0,#4
        0x00000f54:    4304        .C      ORRS     r4,r4,r0
        0x00000f56:    7868        hx      LDRB     r0,[r5,#1]
        0x00000f58:    1c6d        m.      ADDS     r5,r5,#1
        0x00000f5a:    282a        *(      CMP      r0,#0x2a
        0x00000f5c:    d10a        ..      BNE      0xf74 ; _printf_core + 168
        0x00000f5e:    cf01        ..      LDM      r7!,{r0}
        0x00000f60:    1c6d        m.      ADDS     r5,r5,#1
        0x00000f62:    9002        ..      STR      r0,[sp,#8]
        0x00000f64:    e00b        ..      B        0xf7e ; _printf_core + 178
        0x00000f66:    9902        ..      LDR      r1,[sp,#8]
        0x00000f68:    220a        ."      MOVS     r2,#0xa
        0x00000f6a:    4351        QC      MULS     r1,r2,r1
        0x00000f6c:    3930        09      SUBS     r1,r1,#0x30
        0x00000f6e:    1840        @.      ADDS     r0,r0,r1
        0x00000f70:    1c6d        m.      ADDS     r5,r5,#1
        0x00000f72:    9002        ..      STR      r0,[sp,#8]
        0x00000f74:    7828        (x      LDRB     r0,[r5,#0]
        0x00000f76:    4601        .F      MOV      r1,r0
        0x00000f78:    3930        09      SUBS     r1,r1,#0x30
        0x00000f7a:    2909        .)      CMP      r1,#9
        0x00000f7c:    d9f3        ..      BLS      0xf66 ; _printf_core + 154
        0x00000f7e:    7828        (x      LDRB     r0,[r5,#0]
        0x00000f80:    286c        l(      CMP      r0,#0x6c
        0x00000f82:    d010        ..      BEQ      0xfa6 ; _printf_core + 218
        0x00000f84:    dc06        ..      BGT      0xf94 ; _printf_core + 200
        0x00000f86:    284c        L(      CMP      r0,#0x4c
        0x00000f88:    d01a        ..      BEQ      0xfc0 ; _printf_core + 244
        0x00000f8a:    2868        h(      CMP      r0,#0x68
        0x00000f8c:    d00e        ..      BEQ      0xfac ; _printf_core + 224
        0x00000f8e:    286a        j(      CMP      r0,#0x6a
        0x00000f90:    d117        ..      BNE      0xfc2 ; _printf_core + 246
        0x00000f92:    e004        ..      B        0xf9e ; _printf_core + 210
        0x00000f94:    2874        t(      CMP      r0,#0x74
        0x00000f96:    d013        ..      BEQ      0xfc0 ; _printf_core + 244
        0x00000f98:    287a        z(      CMP      r0,#0x7a
        0x00000f9a:    d112        ..      BNE      0xfc2 ; _printf_core + 246
        0x00000f9c:    e010        ..      B        0xfc0 ; _printf_core + 244
        0x00000f9e:    2001        .       MOVS     r0,#1
        0x00000fa0:    0540        @.      LSLS     r0,r0,#21
        0x00000fa2:    4304        .C      ORRS     r4,r4,r0
        0x00000fa4:    e00c        ..      B        0xfc0 ; _printf_core + 244
        0x00000fa6:    2101        .!      MOVS     r1,#1
        0x00000fa8:    0509        ..      LSLS     r1,r1,#20
        0x00000faa:    e001        ..      B        0xfb0 ; _printf_core + 228
        0x00000fac:    2103        .!      MOVS     r1,#3
        0x00000fae:    0509        ..      LSLS     r1,r1,#20
        0x00000fb0:    430c        .C      ORRS     r4,r4,r1
        0x00000fb2:    7869        ix      LDRB     r1,[r5,#1]
        0x00000fb4:    4281        .B      CMP      r1,r0
        0x00000fb6:    d103        ..      BNE      0xfc0 ; _printf_core + 244
        0x00000fb8:    2001        .       MOVS     r0,#1
        0x00000fba:    0500        ..      LSLS     r0,r0,#20
        0x00000fbc:    1824        $.      ADDS     r4,r4,r0
        0x00000fbe:    1c6d        m.      ADDS     r5,r5,#1
        0x00000fc0:    1c6d        m.      ADDS     r5,r5,#1
        0x00000fc2:    7828        (x      LDRB     r0,[r5,#0]
        0x00000fc4:    9003        ..      STR      r0,[sp,#0xc]
        0x00000fc6:    286e        n(      CMP      r0,#0x6e
        0x00000fc8:    d01e        ..      BEQ      0x1008 ; _printf_core + 316
        0x00000fca:    dc0c        ..      BGT      0xfe6 ; _printf_core + 282
        0x00000fcc:    2863        c(      CMP      r0,#0x63
        0x00000fce:    d031        1.      BEQ      0x1034 ; _printf_core + 360
        0x00000fd0:    dc04        ..      BGT      0xfdc ; _printf_core + 272
        0x00000fd2:    2800        .(      CMP      r0,#0
        0x00000fd4:    d08a        ..      BEQ      0xeec ; _printf_core + 32
        0x00000fd6:    2858        X(      CMP      r0,#0x58
        0x00000fd8:    d111        ..      BNE      0xffe ; _printf_core + 306
        0x00000fda:    e0b2        ..      B        0x1142 ; _printf_core + 630
        0x00000fdc:    2864        d(      CMP      r0,#0x64
        0x00000fde:    d07b        {.      BEQ      0x10d8 ; _printf_core + 524
        0x00000fe0:    2869        i(      CMP      r0,#0x69
        0x00000fe2:    d10c        ..      BNE      0xffe ; _printf_core + 306
        0x00000fe4:    e078        x.      B        0x10d8 ; _printf_core + 524
        0x00000fe6:    2873        s(      CMP      r0,#0x73
        0x00000fe8:    d02d        -.      BEQ      0x1046 ; _printf_core + 378
        0x00000fea:    dc04        ..      BGT      0xff6 ; _printf_core + 298
        0x00000fec:    286f        o(      CMP      r0,#0x6f
        0x00000fee:    d070        p.      BEQ      0x10d2 ; _printf_core + 518
        0x00000ff0:    2870        p(      CMP      r0,#0x70
        0x00000ff2:    d104        ..      BNE      0xffe ; _printf_core + 306
        0x00000ff4:    e0a7        ..      B        0x1146 ; _printf_core + 634
        0x00000ff6:    2875        u(      CMP      r0,#0x75
        0x00000ff8:    d06c        l.      BEQ      0x10d4 ; _printf_core + 520
        0x00000ffa:    2878        x(      CMP      r0,#0x78
        0x00000ffc:    d06b        k.      BEQ      0x10d6 ; _printf_core + 522
        0x00000ffe:    9a14        ..      LDR      r2,[sp,#0x50]
        0x00001000:    9913        ..      LDR      r1,[sp,#0x4c]
        0x00001002:    4790        .G      BLX      r2
        0x00001004:    1c76        v.      ADDS     r6,r6,#1
        0x00001006:    e062        b.      B        0x10ce ; _printf_core + 514
        0x00001008:    0260        `.      LSLS     r0,r4,#9
        0x0000100a:    0f40        @.      LSRS     r0,r0,#29
        0x0000100c:    2802        .(      CMP      r0,#2
        0x0000100e:    d007        ..      BEQ      0x1020 ; _printf_core + 340
        0x00001010:    2803        .(      CMP      r0,#3
        0x00001012:    d00a        ..      BEQ      0x102a ; _printf_core + 350
        0x00001014:    2804        .(      CMP      r0,#4
        0x00001016:    6838        8h      LDR      r0,[r7,#0]
        0x00001018:    d00a        ..      BEQ      0x1030 ; _printf_core + 356
        0x0000101a:    6006        .`      STR      r6,[r0,#0]
        0x0000101c:    1d3f        ?.      ADDS     r7,r7,#4
        0x0000101e:    e056        V.      B        0x10ce ; _printf_core + 514
        0x00001020:    6838        8h      LDR      r0,[r7,#0]
        0x00001022:    17f1        ..      ASRS     r1,r6,#31
        0x00001024:    6006        .`      STR      r6,[r0,#0]
        0x00001026:    6041        A`      STR      r1,[r0,#4]
        0x00001028:    e7f8        ..      B        0x101c ; _printf_core + 336
        0x0000102a:    6838        8h      LDR      r0,[r7,#0]
        0x0000102c:    8006        ..      STRH     r6,[r0,#0]
        0x0000102e:    e7f5        ..      B        0x101c ; _printf_core + 336
        0x00001030:    7006        .p      STRB     r6,[r0,#0]
        0x00001032:    e7f3        ..      B        0x101c ; _printf_core + 336
        0x00001034:    7838        8x      LDRB     r0,[r7,#0]
        0x00001036:    4669        iF      MOV      r1,sp
        0x00001038:    7408        .t      STRB     r0,[r1,#0x10]
        0x0000103a:    2000        .       MOVS     r0,#0
        0x0000103c:    7448        Ht      STRB     r0,[r1,#0x11]
        0x0000103e:    a804        ..      ADD      r0,sp,#0x10
        0x00001040:    9003        ..      STR      r0,[sp,#0xc]
        0x00001042:    2001        .       MOVS     r0,#1
        0x00001044:    e003        ..      B        0x104e ; _printf_core + 386
        0x00001046:    6838        8h      LDR      r0,[r7,#0]
        0x00001048:    9003        ..      STR      r0,[sp,#0xc]
        0x0000104a:    2000        .       MOVS     r0,#0
        0x0000104c:    43c0        .C      MVNS     r0,r0
        0x0000104e:    1d3f        ?.      ADDS     r7,r7,#4
        0x00001050:    0761        a.      LSLS     r1,r4,#29
        0x00001052:    d50f        ..      BPL      0x1074 ; _printf_core + 424
        0x00001054:    2100        .!      MOVS     r1,#0
        0x00001056:    e001        ..      B        0x105c ; _printf_core + 400
        0x00001058:    9901        ..      LDR      r1,[sp,#4]
        0x0000105a:    1c49        I.      ADDS     r1,r1,#1
        0x0000105c:    9a02        ..      LDR      r2,[sp,#8]
        0x0000105e:    9101        ..      STR      r1,[sp,#4]
        0x00001060:    4291        .B      CMP      r1,r2
        0x00001062:    da13        ..      BGE      0x108c ; _printf_core + 448
        0x00001064:    4281        .B      CMP      r1,r0
        0x00001066:    dbf7        ..      BLT      0x1058 ; _printf_core + 396
        0x00001068:    9a01        ..      LDR      r2,[sp,#4]
        0x0000106a:    9903        ..      LDR      r1,[sp,#0xc]
        0x0000106c:    5c89        .\      LDRB     r1,[r1,r2]
        0x0000106e:    2900        .)      CMP      r1,#0
        0x00001070:    d1f2        ..      BNE      0x1058 ; _printf_core + 396
        0x00001072:    e00b        ..      B        0x108c ; _printf_core + 448
        0x00001074:    2100        .!      MOVS     r1,#0
        0x00001076:    e001        ..      B        0x107c ; _printf_core + 432
        0x00001078:    9901        ..      LDR      r1,[sp,#4]
        0x0000107a:    1c49        I.      ADDS     r1,r1,#1
        0x0000107c:    9101        ..      STR      r1,[sp,#4]
        0x0000107e:    4281        .B      CMP      r1,r0
        0x00001080:    dbfa        ..      BLT      0x1078 ; _printf_core + 428
        0x00001082:    9a01        ..      LDR      r2,[sp,#4]
        0x00001084:    9903        ..      LDR      r1,[sp,#0xc]
        0x00001086:    5c89        .\      LDRB     r1,[r1,r2]
        0x00001088:    2900        .)      CMP      r1,#0
        0x0000108a:    d1f5        ..      BNE      0x1078 ; _printf_core + 428
        0x0000108c:    9901        ..      LDR      r1,[sp,#4]
        0x0000108e:    9800        ..      LDR      r0,[sp,#0]
        0x00001090:    9a13        ..      LDR      r2,[sp,#0x4c]
        0x00001092:    1a40        @.      SUBS     r0,r0,r1
        0x00001094:    9000        ..      STR      r0,[sp,#0]
        0x00001096:    4621        !F      MOV      r1,r4
        0x00001098:    9b14        ..      LDR      r3,[sp,#0x50]
        0x0000109a:    f000f93b    ..;.    BL       _printf_pre_padding ; 0x1314
        0x0000109e:    9901        ..      LDR      r1,[sp,#4]
        0x000010a0:    1980        ..      ADDS     r0,r0,r6
        0x000010a2:    1846        F.      ADDS     r6,r0,r1
        0x000010a4:    e007        ..      B        0x10b6 ; _printf_core + 490
        0x000010a6:    9803        ..      LDR      r0,[sp,#0xc]
        0x000010a8:    9903        ..      LDR      r1,[sp,#0xc]
        0x000010aa:    7800        .x      LDRB     r0,[r0,#0]
        0x000010ac:    1c49        I.      ADDS     r1,r1,#1
        0x000010ae:    9103        ..      STR      r1,[sp,#0xc]
        0x000010b0:    9a14        ..      LDR      r2,[sp,#0x50]
        0x000010b2:    9913        ..      LDR      r1,[sp,#0x4c]
        0x000010b4:    4790        .G      BLX      r2
        0x000010b6:    9801        ..      LDR      r0,[sp,#4]
        0x000010b8:    1e40        @.      SUBS     r0,r0,#1
        0x000010ba:    9001        ..      STR      r0,[sp,#4]
        0x000010bc:    1c40        @.      ADDS     r0,r0,#1
        0x000010be:    d1f2        ..      BNE      0x10a6 ; _printf_core + 474
        0x000010c0:    4621        !F      MOV      r1,r4
        0x000010c2:    9b14        ..      LDR      r3,[sp,#0x50]
        0x000010c4:    9a13        ..      LDR      r2,[sp,#0x4c]
        0x000010c6:    9800        ..      LDR      r0,[sp,#0]
        0x000010c8:    f000f914    ....    BL       _printf_post_padding ; 0x12f4
        0x000010cc:    1986        ..      ADDS     r6,r0,r6
        0x000010ce:    1c6d        m.      ADDS     r5,r5,#1
        0x000010d0:    e709        ..      B        0xee6 ; _printf_core + 26
        0x000010d2:    e041        A.      B        0x1158 ; _printf_core + 652
        0x000010d4:    e033        3.      B        0x113e ; _printf_core + 626
        0x000010d6:    e034        4.      B        0x1142 ; _printf_core + 630
        0x000010d8:    200a        .       MOVS     r0,#0xa
        0x000010da:    2100        .!      MOVS     r1,#0
        0x000010dc:    9004        ..      STR      r0,[sp,#0x10]
        0x000010de:    9105        ..      STR      r1,[sp,#0x14]
        0x000010e0:    0260        `.      LSLS     r0,r4,#9
        0x000010e2:    0f41        A.      LSRS     r1,r0,#29
        0x000010e4:    2902        .)      CMP      r1,#2
        0x000010e6:    d005        ..      BEQ      0x10f4 ; _printf_core + 552
        0x000010e8:    cf01        ..      LDM      r7!,{r0}
        0x000010ea:    17c2        ..      ASRS     r2,r0,#31
        0x000010ec:    4694        .F      MOV      r12,r2
        0x000010ee:    2903        .)      CMP      r1,#3
        0x000010f0:    d005        ..      BEQ      0x10fe ; _printf_core + 562
        0x000010f2:    e007        ..      B        0x1104 ; _printf_core + 568
        0x000010f4:    1dff        ..      ADDS     r7,r7,#7
        0x000010f6:    08ff        ..      LSRS     r7,r7,#3
        0x000010f8:    00ff        ..      LSLS     r7,r7,#3
        0x000010fa:    cf03        ..      LDM      r7!,{r0,r1}
        0x000010fc:    e006        ..      B        0x110c ; _printf_core + 576
        0x000010fe:    b200        ..      SXTH     r0,r0
        0x00001100:    17c2        ..      ASRS     r2,r0,#31
        0x00001102:    4694        .F      MOV      r12,r2
        0x00001104:    2904        .)      CMP      r1,#4
        0x00001106:    d102        ..      BNE      0x110e ; _printf_core + 578
        0x00001108:    b240        @.      SXTB     r0,r0
        0x0000110a:    17c1        ..      ASRS     r1,r0,#31
        0x0000110c:    468c        .F      MOV      r12,r1
        0x0000110e:    2200        ."      MOVS     r2,#0
        0x00001110:    4661        aF      MOV      r1,r12
        0x00001112:    4594        .E      CMP      r12,r2
        0x00001114:    da06        ..      BGE      0x1124 ; _printf_core + 600
        0x00001116:    460a        .F      MOV      r2,r1
        0x00001118:    2100        .!      MOVS     r1,#0
        0x0000111a:    4240        @B      RSBS     r0,r0,#0
        0x0000111c:    4191        .A      SBCS     r1,r1,r2
        0x0000111e:    468c        .F      MOV      r12,r1
        0x00001120:    212d        -!      MOVS     r1,#0x2d
        0x00001122:    e002        ..      B        0x112a ; _printf_core + 606
        0x00001124:    0521        !.      LSLS     r1,r4,#20
        0x00001126:    d504        ..      BPL      0x1132 ; _printf_core + 614
        0x00001128:    212b        +!      MOVS     r1,#0x2b
        0x0000112a:    466a        jF      MOV      r2,sp
        0x0000112c:    7611        .v      STRB     r1,[r2,#0x18]
        0x0000112e:    2101        .!      MOVS     r1,#1
        0x00001130:    e003        ..      B        0x113a ; _printf_core + 622
        0x00001132:    07e1        ..      LSLS     r1,r4,#31
        0x00001134:    d001        ..      BEQ      0x113a ; _printf_core + 622
        0x00001136:    2120         !      MOVS     r1,#0x20
        0x00001138:    e7f7        ..      B        0x112a ; _printf_core + 606
        0x0000113a:    9101        ..      STR      r1,[sp,#4]
        0x0000113c:    e054        T.      B        0x11e8 ; _printf_core + 796
        0x0000113e:    200a        .       MOVS     r0,#0xa
        0x00001140:    e00b        ..      B        0x115a ; _printf_core + 654
        0x00001142:    2010        .       MOVS     r0,#0x10
        0x00001144:    e009        ..      B        0x115a ; _printf_core + 654
        0x00001146:    2010        .       MOVS     r0,#0x10
        0x00001148:    9004        ..      STR      r0,[sp,#0x10]
        0x0000114a:    2100        .!      MOVS     r1,#0
        0x0000114c:    2004        .       MOVS     r0,#4
        0x0000114e:    4304        .C      ORRS     r4,r4,r0
        0x00001150:    2008        .       MOVS     r0,#8
        0x00001152:    9105        ..      STR      r1,[sp,#0x14]
        0x00001154:    9002        ..      STR      r0,[sp,#8]
        0x00001156:    e003        ..      B        0x1160 ; _printf_core + 660
        0x00001158:    2008        .       MOVS     r0,#8
        0x0000115a:    2100        .!      MOVS     r1,#0
        0x0000115c:    9105        ..      STR      r1,[sp,#0x14]
        0x0000115e:    9004        ..      STR      r0,[sp,#0x10]
        0x00001160:    0260        `.      LSLS     r0,r4,#9
        0x00001162:    0f41        A.      LSRS     r1,r0,#29
        0x00001164:    2902        .)      CMP      r1,#2
        0x00001166:    d005        ..      BEQ      0x1174 ; _printf_core + 680
        0x00001168:    cf01        ..      LDM      r7!,{r0}
        0x0000116a:    2200        ."      MOVS     r2,#0
        0x0000116c:    4694        .F      MOV      r12,r2
        0x0000116e:    2903        .)      CMP      r1,#3
        0x00001170:    d006        ..      BEQ      0x1180 ; _printf_core + 692
        0x00001172:    e006        ..      B        0x1182 ; _printf_core + 694
        0x00001174:    1dff        ..      ADDS     r7,r7,#7
        0x00001176:    08ff        ..      LSRS     r7,r7,#3
        0x00001178:    00ff        ..      LSLS     r7,r7,#3
        0x0000117a:    cf03        ..      LDM      r7!,{r0,r1}
        0x0000117c:    468c        .F      MOV      r12,r1
        0x0000117e:    e003        ..      B        0x1188 ; _printf_core + 700
        0x00001180:    b280        ..      UXTH     r0,r0
        0x00001182:    2904        .)      CMP      r1,#4
        0x00001184:    d100        ..      BNE      0x1188 ; _printf_core + 700
        0x00001186:    b2c0        ..      UXTB     r0,r0
        0x00001188:    2100        .!      MOVS     r1,#0
        0x0000118a:    9101        ..      STR      r1,[sp,#4]
        0x0000118c:    0721        !.      LSLS     r1,r4,#28
        0x0000118e:    d52b        +.      BPL      0x11e8 ; _printf_core + 796
        0x00001190:    9903        ..      LDR      r1,[sp,#0xc]
        0x00001192:    2970        p)      CMP      r1,#0x70
        0x00001194:    d006        ..      BEQ      0x11a4 ; _printf_core + 728
        0x00001196:    9a04        ..      LDR      r2,[sp,#0x10]
        0x00001198:    2110        .!      MOVS     r1,#0x10
        0x0000119a:    9b05        ..      LDR      r3,[sp,#0x14]
        0x0000119c:    404a        J@      EORS     r2,r2,r1
        0x0000119e:    431a        .C      ORRS     r2,r2,r3
        0x000011a0:    d005        ..      BEQ      0x11ae ; _printf_core + 738
        0x000011a2:    e00e        ..      B        0x11c2 ; _printf_core + 758
        0x000011a4:    2140        @!      MOVS     r1,#0x40
        0x000011a6:    466a        jF      MOV      r2,sp
        0x000011a8:    7611        .v      STRB     r1,[r2,#0x18]
        0x000011aa:    2101        .!      MOVS     r1,#1
        0x000011ac:    e008        ..      B        0x11c0 ; _printf_core + 756
        0x000011ae:    4661        aF      MOV      r1,r12
        0x000011b0:    4301        .C      ORRS     r1,r1,r0
        0x000011b2:    d006        ..      BEQ      0x11c2 ; _printf_core + 758
        0x000011b4:    2130        0!      MOVS     r1,#0x30
        0x000011b6:    466a        jF      MOV      r2,sp
        0x000011b8:    7611        .v      STRB     r1,[r2,#0x18]
        0x000011ba:    9903        ..      LDR      r1,[sp,#0xc]
        0x000011bc:    7651        Qv      STRB     r1,[r2,#0x19]
        0x000011be:    2102        .!      MOVS     r1,#2
        0x000011c0:    9101        ..      STR      r1,[sp,#4]
        0x000011c2:    9a04        ..      LDR      r2,[sp,#0x10]
        0x000011c4:    2108        .!      MOVS     r1,#8
        0x000011c6:    9b05        ..      LDR      r3,[sp,#0x14]
        0x000011c8:    404a        J@      EORS     r2,r2,r1
        0x000011ca:    431a        .C      ORRS     r2,r2,r3
        0x000011cc:    d10c        ..      BNE      0x11e8 ; _printf_core + 796
        0x000011ce:    4661        aF      MOV      r1,r12
        0x000011d0:    4301        .C      ORRS     r1,r1,r0
        0x000011d2:    d101        ..      BNE      0x11d8 ; _printf_core + 780
        0x000011d4:    0761        a.      LSLS     r1,r4,#29
        0x000011d6:    d507        ..      BPL      0x11e8 ; _printf_core + 796
        0x000011d8:    2130        0!      MOVS     r1,#0x30
        0x000011da:    466a        jF      MOV      r2,sp
        0x000011dc:    7611        .v      STRB     r1,[r2,#0x18]
        0x000011de:    2101        .!      MOVS     r1,#1
        0x000011e0:    9101        ..      STR      r1,[sp,#4]
        0x000011e2:    9902        ..      LDR      r1,[sp,#8]
        0x000011e4:    1e49        I.      SUBS     r1,r1,#1
        0x000011e6:    9102        ..      STR      r1,[sp,#8]
        0x000011e8:    9903        ..      LDR      r1,[sp,#0xc]
        0x000011ea:    2958        X)      CMP      r1,#0x58
        0x000011ec:    d004        ..      BEQ      0x11f8 ; _printf_core + 812
        0x000011ee:    a137        7.      ADR      r1,{pc}+0xde ; 0x12cc
        0x000011f0:    9103        ..      STR      r1,[sp,#0xc]
        0x000011f2:    a90f        ..      ADD      r1,sp,#0x3c
        0x000011f4:    910f        ..      STR      r1,[sp,#0x3c]
        0x000011f6:    e00d        ..      B        0x1214 ; _printf_core + 840
        0x000011f8:    a139        9.      ADR      r1,{pc}+0xe8 ; 0x12e0
        0x000011fa:    e7f9        ..      B        0x11f0 ; _printf_core + 804
        0x000011fc:    4661        aF      MOV      r1,r12
        0x000011fe:    9b05        ..      LDR      r3,[sp,#0x14]
        0x00001200:    9a04        ..      LDR      r2,[sp,#0x10]
        0x00001202:    f7feffcb    ....    BL       __aeabi_uldivmod ; 0x19c
        0x00001206:    9b03        ..      LDR      r3,[sp,#0xc]
        0x00001208:    468c        .F      MOV      r12,r1
        0x0000120a:    5c9b        .\      LDRB     r3,[r3,r2]
        0x0000120c:    9a0f        ..      LDR      r2,[sp,#0x3c]
        0x0000120e:    1e52        R.      SUBS     r2,r2,#1
        0x00001210:    920f        ..      STR      r2,[sp,#0x3c]
        0x00001212:    7013        .p      STRB     r3,[r2,#0]
        0x00001214:    4661        aF      MOV      r1,r12
        0x00001216:    4301        .C      ORRS     r1,r1,r0
        0x00001218:    d1f0        ..      BNE      0x11fc ; _printf_core + 816
        0x0000121a:    980f        ..      LDR      r0,[sp,#0x3c]
        0x0000121c:    a907        ..      ADD      r1,sp,#0x1c
        0x0000121e:    1a08        ..      SUBS     r0,r1,r0
        0x00001220:    3020         0      ADDS     r0,r0,#0x20
        0x00001222:    9003        ..      STR      r0,[sp,#0xc]
        0x00001224:    0760        `.      LSLS     r0,r4,#29
        0x00001226:    d504        ..      BPL      0x1232 ; _printf_core + 870
        0x00001228:    2001        .       MOVS     r0,#1
        0x0000122a:    0400        ..      LSLS     r0,r0,#16
        0x0000122c:    4384        .C      BICS     r4,r4,r0
        0x0000122e:    9802        ..      LDR      r0,[sp,#8]
        0x00001230:    e001        ..      B        0x1236 ; _printf_core + 874
        0x00001232:    2001        .       MOVS     r0,#1
        0x00001234:    9002        ..      STR      r0,[sp,#8]
        0x00001236:    9903        ..      LDR      r1,[sp,#0xc]
        0x00001238:    4288        .B      CMP      r0,r1
        0x0000123a:    dd01        ..      BLE      0x1240 ; _printf_core + 884
        0x0000123c:    1a40        @.      SUBS     r0,r0,r1
        0x0000123e:    e000        ..      B        0x1242 ; _printf_core + 886
        0x00001240:    2000        .       MOVS     r0,#0
        0x00001242:    1841        A.      ADDS     r1,r0,r1
        0x00001244:    9002        ..      STR      r0,[sp,#8]
        0x00001246:    9801        ..      LDR      r0,[sp,#4]
        0x00001248:    1809        ..      ADDS     r1,r1,r0
        0x0000124a:    9800        ..      LDR      r0,[sp,#0]
        0x0000124c:    1a40        @.      SUBS     r0,r0,r1
        0x0000124e:    9000        ..      STR      r0,[sp,#0]
        0x00001250:    03e0        ..      LSLS     r0,r4,#15
        0x00001252:    d406        ..      BMI      0x1262 ; _printf_core + 918
        0x00001254:    4621        !F      MOV      r1,r4
        0x00001256:    9b14        ..      LDR      r3,[sp,#0x50]
        0x00001258:    9a13        ..      LDR      r2,[sp,#0x4c]
        0x0000125a:    9800        ..      LDR      r0,[sp,#0]
        0x0000125c:    f000f85a    ..Z.    BL       _printf_pre_padding ; 0x1314
        0x00001260:    1986        ..      ADDS     r6,r0,r6
        0x00001262:    2000        .       MOVS     r0,#0
        0x00001264:    9004        ..      STR      r0,[sp,#0x10]
        0x00001266:    e008        ..      B        0x127a ; _printf_core + 942
        0x00001268:    a906        ..      ADD      r1,sp,#0x18
        0x0000126a:    5c08        .\      LDRB     r0,[r1,r0]
        0x0000126c:    9a14        ..      LDR      r2,[sp,#0x50]
        0x0000126e:    9913        ..      LDR      r1,[sp,#0x4c]
        0x00001270:    4790        .G      BLX      r2
        0x00001272:    9804        ..      LDR      r0,[sp,#0x10]
        0x00001274:    1c40        @.      ADDS     r0,r0,#1
        0x00001276:    1c76        v.      ADDS     r6,r6,#1
        0x00001278:    9004        ..      STR      r0,[sp,#0x10]
        0x0000127a:    9901        ..      LDR      r1,[sp,#4]
        0x0000127c:    4288        .B      CMP      r0,r1
        0x0000127e:    dbf3        ..      BLT      0x1268 ; _printf_core + 924
        0x00001280:    03e0        ..      LSLS     r0,r4,#15
        0x00001282:    d50c        ..      BPL      0x129e ; _printf_core + 978
        0x00001284:    4621        !F      MOV      r1,r4
        0x00001286:    9b14        ..      LDR      r3,[sp,#0x50]
        0x00001288:    9a13        ..      LDR      r2,[sp,#0x4c]
        0x0000128a:    9800        ..      LDR      r0,[sp,#0]
        0x0000128c:    f000f842    ..B.    BL       _printf_pre_padding ; 0x1314
        0x00001290:    1986        ..      ADDS     r6,r0,r6
        0x00001292:    e004        ..      B        0x129e ; _printf_core + 978
        0x00001294:    9a14        ..      LDR      r2,[sp,#0x50]
        0x00001296:    2030        0       MOVS     r0,#0x30
        0x00001298:    9913        ..      LDR      r1,[sp,#0x4c]
        0x0000129a:    4790        .G      BLX      r2
        0x0000129c:    1c76        v.      ADDS     r6,r6,#1
        0x0000129e:    9902        ..      LDR      r1,[sp,#8]
        0x000012a0:    1e48        H.      SUBS     r0,r1,#1
        0x000012a2:    9002        ..      STR      r0,[sp,#8]
        0x000012a4:    2900        .)      CMP      r1,#0
        0x000012a6:    dcf5        ..      BGT      0x1294 ; _printf_core + 968
        0x000012a8:    e008        ..      B        0x12bc ; _printf_core + 1008
        0x000012aa:    980f        ..      LDR      r0,[sp,#0x3c]
        0x000012ac:    990f        ..      LDR      r1,[sp,#0x3c]
        0x000012ae:    7800        .x      LDRB     r0,[r0,#0]
        0x000012b0:    1c49        I.      ADDS     r1,r1,#1
        0x000012b2:    910f        ..      STR      r1,[sp,#0x3c]
        0x000012b4:    9a14        ..      LDR      r2,[sp,#0x50]
        0x000012b6:    9913        ..      LDR      r1,[sp,#0x4c]
        0x000012b8:    4790        .G      BLX      r2
        0x000012ba:    1c76        v.      ADDS     r6,r6,#1
        0x000012bc:    9903        ..      LDR      r1,[sp,#0xc]
        0x000012be:    1e48        H.      SUBS     r0,r1,#1
        0x000012c0:    9003        ..      STR      r0,[sp,#0xc]
        0x000012c2:    2900        .)      CMP      r1,#0
        0x000012c4:    dcf1        ..      BGT      0x12aa ; _printf_core + 990
        0x000012c6:    e6fb        ..      B        0x10c0 ; _printf_core + 500
    $d
        0x000012c8:    00012809    .(..    DCD    75785
        0x000012cc:    33323130    0123    DCD    858927408
        0x000012d0:    37363534    4567    DCD    926299444
        0x000012d4:    62613938    89ab    DCD    1650538808
        0x000012d8:    66656463    cdef    DCD    1717920867
        0x000012dc:    00000000    ....    DCD    0
        0x000012e0:    33323130    0123    DCD    858927408
        0x000012e4:    37363534    4567    DCD    926299444
        0x000012e8:    42413938    89AB    DCD    1111570744
        0x000012ec:    46454443    CDEF    DCD    1178944579
        0x000012f0:    00000000    ....    DCD    0
    $t
    i._printf_post_padding
    _printf_post_padding
        0x000012f4:    b5f8        ..      PUSH     {r3-r7,lr}
        0x000012f6:    4604        .F      MOV      r4,r0
        0x000012f8:    2500        .%      MOVS     r5,#0
        0x000012fa:    461e        .F      MOV      r6,r3
        0x000012fc:    4617        .F      MOV      r7,r2
        0x000012fe:    0488        ..      LSLS     r0,r1,#18
        0x00001300:    d404        ..      BMI      0x130c ; _printf_post_padding + 24
        0x00001302:    e005        ..      B        0x1310 ; _printf_post_padding + 28
        0x00001304:    4639        9F      MOV      r1,r7
        0x00001306:    2020                MOVS     r0,#0x20
        0x00001308:    47b0        .G      BLX      r6
        0x0000130a:    1c6d        m.      ADDS     r5,r5,#1
        0x0000130c:    1e64        d.      SUBS     r4,r4,#1
        0x0000130e:    d5f9        ..      BPL      0x1304 ; _printf_post_padding + 16
        0x00001310:    4628        (F      MOV      r0,r5
        0x00001312:    bdf8        ..      POP      {r3-r7,pc}
    i._printf_pre_padding
    _printf_pre_padding
        0x00001314:    b5ff        ..      PUSH     {r0-r7,lr}
        0x00001316:    4604        .F      MOV      r4,r0
        0x00001318:    2500        .%      MOVS     r5,#0
        0x0000131a:    b081        ..      SUB      sp,sp,#4
        0x0000131c:    461e        .F      MOV      r6,r3
        0x0000131e:    03c8        ..      LSLS     r0,r1,#15
        0x00001320:    d501        ..      BPL      0x1326 ; _printf_pre_padding + 18
        0x00001322:    2730        0'      MOVS     r7,#0x30
        0x00001324:    e000        ..      B        0x1328 ; _printf_pre_padding + 20
        0x00001326:    2720         '      MOVS     r7,#0x20
        0x00001328:    0488        ..      LSLS     r0,r1,#18
        0x0000132a:    d504        ..      BPL      0x1336 ; _printf_pre_padding + 34
        0x0000132c:    e005        ..      B        0x133a ; _printf_pre_padding + 38
        0x0000132e:    4638        8F      MOV      r0,r7
        0x00001330:    9903        ..      LDR      r1,[sp,#0xc]
        0x00001332:    47b0        .G      BLX      r6
        0x00001334:    1c6d        m.      ADDS     r5,r5,#1
        0x00001336:    1e64        d.      SUBS     r4,r4,#1
        0x00001338:    d5f9        ..      BPL      0x132e ; _printf_pre_padding + 26
        0x0000133a:    4628        (F      MOV      r0,r5
        0x0000133c:    b005        ..      ADD      sp,sp,#0x14
        0x0000133e:    bdf0        ..      POP      {r4-r7,pc}
    i.dump_buffer
    dump_buffer
        0x00001340:    b570        p.      PUSH     {r4-r6,lr}
        0x00001342:    4605        .F      MOV      r5,r0
        0x00001344:    460e        .F      MOV      r6,r1
        0x00001346:    2400        .$      MOVS     r4,#0
        0x00001348:    4631        1F      MOV      r1,r6
        0x0000134a:    a00e        ..      ADR      r0,{pc}+0x3a ; 0x1384
        0x0000134c:    f7fffd9e    ....    BL       __0printf$8 ; 0xe8c
        0x00001350:    bf00        ..      NOP      
        0x00001352:    e010        ..      B        0x1376 ; dump_buffer + 54
        0x00001354:    5d29        )]      LDRB     r1,[r5,r4]
        0x00001356:    a010        ..      ADR      r0,{pc}+0x42 ; 0x1398
        0x00001358:    f7fffd98    ....    BL       __0printf$8 ; 0xe8c
        0x0000135c:    1c60        `.      ADDS     r0,r4,#1
        0x0000135e:    17c1        ..      ASRS     r1,r0,#31
        0x00001360:    0f49        I.      LSRS     r1,r1,#29
        0x00001362:    1809        ..      ADDS     r1,r1,r0
        0x00001364:    10c9        ..      ASRS     r1,r1,#3
        0x00001366:    00c9        ..      LSLS     r1,r1,#3
        0x00001368:    1a41        A.      SUBS     r1,r0,r1
        0x0000136a:    d102        ..      BNE      0x1372 ; dump_buffer + 50
        0x0000136c:    a00c        ..      ADR      r0,{pc}+0x34 ; 0x13a0
        0x0000136e:    f7fffd8d    ....    BL       __0printf$8 ; 0xe8c
        0x00001372:    1c60        `.      ADDS     r0,r4,#1
        0x00001374:    b284        ..      UXTH     r4,r0
        0x00001376:    42b4        .B      CMP      r4,r6
        0x00001378:    dbec        ..      BLT      0x1354 ; dump_buffer + 20
        0x0000137a:    a00a        ..      ADR      r0,{pc}+0x2a ; 0x13a4
        0x0000137c:    f7fffd86    ....    BL       __0printf$8 ; 0xe8c
        0x00001380:    bd70        p.      POP      {r4-r6,pc}
    $d
        0x00001382:    0000        ..      DCW    0
        0x00001384:    706d7564    dump    DCD    1886221668
        0x00001388:    6675625f    _buf    DCD    1718968927
        0x0000138c:    20726566    fer     DCD    544367974
        0x00001390:    3225203a    : %2    DCD    841293882
        0x00001394:    000a0d64    d...    DCD    658788
        0x00001398:    32257830    0x%2    DCD    841316400
        0x0000139c:    00002c58    X,..    DCD    11352
        0x000013a0:    00000a0d    ....    DCD    2573
        0x000013a4:    0a0d0a0d    ....    DCD    168626701
        0x000013a8:    00000000    ....    DCD    0
    $t
    i.fmt_err
    fmt_err
        0x000013ac:    b570        p.      PUSH     {r4-r6,lr}
        0x000013ae:    4605        .F      MOV      r5,r0
        0x000013b0:    2400        .$      MOVS     r4,#0
        0x000013b2:    4629        )F      MOV      r1,r5
        0x000013b4:    a018        ..      ADR      r0,{pc}+0x64 ; 0x1418
        0x000013b6:    f7fffd69    ..i.    BL       __0printf$8 ; 0xe8c
        0x000013ba:    4628        (F      MOV      r0,r5
        0x000013bc:    f000f8fa    ....    BL       put_rc ; 0x15b4
        0x000013c0:    bf00        ..      NOP      
        0x000013c2:    e00f        ..      B        0x13e4 ; fmt_err + 56
        0x000013c4:    481b        .H      LDR      r0,[pc,#108] ; [0x1434] = 0x20000022
        0x000013c6:    5d02        .]      LDRB     r2,[r0,r4]
        0x000013c8:    4621        !F      MOV      r1,r4
        0x000013ca:    a01b        ..      ADR      r0,{pc}+0x6e ; 0x1438
        0x000013cc:    f7fffd5e    ..^.    BL       __0printf$8 ; 0xe8c
        0x000013d0:    42ac        .B      CMP      r4,r5
        0x000013d2:    d102        ..      BNE      0x13da ; fmt_err + 46
        0x000013d4:    a01b        ..      ADR      r0,{pc}+0x70 ; 0x1444
        0x000013d6:    f7fffd59    ..Y.    BL       __0printf$8 ; 0xe8c
        0x000013da:    a015        ..      ADR      r0,{pc}+0x56 ; 0x1430
        0x000013dc:    f7fffd56    ..V.    BL       __0printf$8 ; 0xe8c
        0x000013e0:    1c60        `.      ADDS     r0,r4,#1
        0x000013e2:    b2c4        ..      UXTB     r4,r0
        0x000013e4:    2c07        .,      CMP      r4,#7
        0x000013e6:    dded        ..      BLE      0x13c4 ; fmt_err + 24
        0x000013e8:    a018        ..      ADR      r0,{pc}+0x64 ; 0x144c
        0x000013ea:    f7fffd4f    ..O.    BL       __0printf$8 ; 0xe8c
        0x000013ee:    2000        .       MOVS     r0,#0
        0x000013f0:    4918        .I      LDR      r1,[pc,#96] ; [0x1454] = 0x2000002a
        0x000013f2:    7008        .p      STRB     r0,[r1,#0]
        0x000013f4:    4818        .H      LDR      r0,[pc,#96] ; [0x1458] = 0x20000014
        0x000013f6:    6800        .h      LDR      r0,[r0,#0]
        0x000013f8:    2104        .!      MOVS     r1,#4
        0x000013fa:    4388        .C      BICS     r0,r0,r1
        0x000013fc:    4916        .I      LDR      r1,[pc,#88] ; [0x1458] = 0x20000014
        0x000013fe:    6008        .`      STR      r0,[r1,#0]
        0x00001400:    f000f9b8    ....    BL       stop_timer0 ; 0x1774
        0x00001404:    2400        .$      MOVS     r4,#0
        0x00001406:    e004        ..      B        0x1412 ; fmt_err + 102
        0x00001408:    2000        .       MOVS     r0,#0
        0x0000140a:    490a        .I      LDR      r1,[pc,#40] ; [0x1434] = 0x20000022
        0x0000140c:    5508        .U      STRB     r0,[r1,r4]
        0x0000140e:    1c60        `.      ADDS     r0,r4,#1
        0x00001410:    b2c4        ..      UXTB     r4,r0
        0x00001412:    2c07        .,      CMP      r4,#7
        0x00001414:    ddf8        ..      BLE      0x1408 ; fmt_err + 92
        0x00001416:    bd70        p.      POP      {r4-r6,pc}
    $d
        0x00001418:    20646d63    cmd     DCD    543452515
        0x0000141c:    73726170    pars    DCD    1936875888
        0x00001420:    20676e69    ing     DCD    543649385
        0x00001424:    6f727265    erro    DCD    1869771365
        0x00001428:    78302872    r(0x    DCD    2016422002
        0x0000142c:    29583225    %2X)    DCD    693645861
        0x00001430:    00000a0d    ....    DCD    2573
        0x00001434:    20000022    "..     DCD    536870946
        0x00001438:    29642528    (%d)    DCD    694428968
        0x0000143c:    2578303a    :0x%    DCD    628633658
        0x00001440:    00005832    2X..    DCD    22578
        0x00001444:    2a202020       *    DCD    706748448
        0x00001448:    00002a2a    **..    DCD    10794
        0x0000144c:    0a0d0a0d    ....    DCD    168626701
        0x00001450:    00000000    ....    DCD    0
        0x00001454:    2000002a    *..     DCD    536870954
        0x00001458:    20000014    ...     DCD    536870932
    $t
    i.fmt_parsing
    fmt_parsing
        0x0000145c:    b510        ..      PUSH     {r4,lr}
        0x0000145e:    2400        .$      MOVS     r4,#0
        0x00001460:    4825        %H      LDR      r0,[pc,#148] ; [0x14f8] = 0x20000014
        0x00001462:    6800        .h      LDR      r0,[r0,#0]
        0x00001464:    2108        .!      MOVS     r1,#8
        0x00001466:    4008        .@      ANDS     r0,r0,r1
        0x00001468:    08c0        ..      LSRS     r0,r0,#3
        0x0000146a:    2800        .(      CMP      r0,#0
        0x0000146c:    d043        C.      BEQ      0x14f6 ; fmt_parsing + 154
        0x0000146e:    4823        #H      LDR      r0,[pc,#140] ; [0x14fc] = 0x20000022
        0x00001470:    7800        .x      LDRB     r0,[r0,#0]
        0x00001472:    285a        Z(      CMP      r0,#0x5a
        0x00001474:    d003        ..      BEQ      0x147e ; fmt_parsing + 34
        0x00001476:    2000        .       MOVS     r0,#0
        0x00001478:    f7ffff98    ....    BL       fmt_err ; 0x13ac
        0x0000147c:    e035        5.      B        0x14ea ; fmt_parsing + 142
        0x0000147e:    2106        .!      MOVS     r1,#6
        0x00001480:    481e        .H      LDR      r0,[pc,#120] ; [0x14fc] = 0x20000022
        0x00001482:    f7fff86b    ..k.    BL       CRC8 ; 0x55c
        0x00001486:    4604        .F      MOV      r4,r0
        0x00001488:    481c        .H      LDR      r0,[pc,#112] ; [0x14fc] = 0x20000022
        0x0000148a:    7980        .y      LDRB     r0,[r0,#6]
        0x0000148c:    42a0        .B      CMP      r0,r4
        0x0000148e:    d003        ..      BEQ      0x1498 ; fmt_parsing + 60
        0x00001490:    2006        .       MOVS     r0,#6
        0x00001492:    f7ffff8b    ....    BL       fmt_err ; 0x13ac
        0x00001496:    e028        (.      B        0x14ea ; fmt_parsing + 142
        0x00001498:    4818        .H      LDR      r0,[pc,#96] ; [0x14fc] = 0x20000022
        0x0000149a:    79c0        .y      LDRB     r0,[r0,#7]
        0x0000149c:    28a5        .(      CMP      r0,#0xa5
        0x0000149e:    d003        ..      BEQ      0x14a8 ; fmt_parsing + 76
        0x000014a0:    2007        .       MOVS     r0,#7
        0x000014a2:    f7ffff83    ....    BL       fmt_err ; 0x13ac
        0x000014a6:    e020         .      B        0x14ea ; fmt_parsing + 142
        0x000014a8:    4814        .H      LDR      r0,[pc,#80] ; [0x14fc] = 0x20000022
        0x000014aa:    7840        @x      LDRB     r0,[r0,#1]
        0x000014ac:    2801        .(      CMP      r0,#1
        0x000014ae:    d00b        ..      BEQ      0x14c8 ; fmt_parsing + 108
        0x000014b0:    4812        .H      LDR      r0,[pc,#72] ; [0x14fc] = 0x20000022
        0x000014b2:    7840        @x      LDRB     r0,[r0,#1]
        0x000014b4:    2802        .(      CMP      r0,#2
        0x000014b6:    d007        ..      BEQ      0x14c8 ; fmt_parsing + 108
        0x000014b8:    4810        .H      LDR      r0,[pc,#64] ; [0x14fc] = 0x20000022
        0x000014ba:    7840        @x      LDRB     r0,[r0,#1]
        0x000014bc:    2803        .(      CMP      r0,#3
        0x000014be:    d003        ..      BEQ      0x14c8 ; fmt_parsing + 108
        0x000014c0:    480e        .H      LDR      r0,[pc,#56] ; [0x14fc] = 0x20000022
        0x000014c2:    7840        @x      LDRB     r0,[r0,#1]
        0x000014c4:    2804        .(      CMP      r0,#4
        0x000014c6:    d10d        ..      BNE      0x14e4 ; fmt_parsing + 136
        0x000014c8:    480b        .H      LDR      r0,[pc,#44] ; [0x14f8] = 0x20000014
        0x000014ca:    6800        .h      LDR      r0,[r0,#0]
        0x000014cc:    2104        .!      MOVS     r1,#4
        0x000014ce:    4388        .C      BICS     r0,r0,r1
        0x000014d0:    4909        .I      LDR      r1,[pc,#36] ; [0x14f8] = 0x20000014
        0x000014d2:    6008        .`      STR      r0,[r1,#0]
        0x000014d4:    a00a        ..      ADR      r0,{pc}+0x2c ; 0x1500
        0x000014d6:    f7fffcd9    ....    BL       __0printf$8 ; 0xe8c
        0x000014da:    2108        .!      MOVS     r1,#8
        0x000014dc:    4807        .H      LDR      r0,[pc,#28] ; [0x14fc] = 0x20000022
        0x000014de:    f7ffff2f    ../.    BL       dump_buffer ; 0x1340
        0x000014e2:    e002        ..      B        0x14ea ; fmt_parsing + 142
        0x000014e4:    2001        .       MOVS     r0,#1
        0x000014e6:    f7ffff61    ..a.    BL       fmt_err ; 0x13ac
        0x000014ea:    4803        .H      LDR      r0,[pc,#12] ; [0x14f8] = 0x20000014
        0x000014ec:    6800        .h      LDR      r0,[r0,#0]
        0x000014ee:    2108        .!      MOVS     r1,#8
        0x000014f0:    4388        .C      BICS     r0,r0,r1
        0x000014f2:    4901        .I      LDR      r1,[pc,#4] ; [0x14f8] = 0x20000014
        0x000014f4:    6008        .`      STR      r0,[r1,#0]
        0x000014f6:    bd10        ..      POP      {r4,pc}
    $d
        0x000014f8:    20000014    ...     DCD    536870932
        0x000014fc:    20000022    "..     DCD    536870946
        0x00001500:    636f7270    proc    DCD    1668248176
        0x00001504:    20737365    ess     DCD    544437093
        0x00001508:    21204b4f    OK !    DCD    555764559
        0x0000150c:    00000a0d    ....    DCD    2573
    $t
    i.fputc
    fputc
        0x00001510:    b570        p.      PUSH     {r4-r6,lr}
        0x00001512:    4604        .F      MOV      r4,r0
        0x00001514:    460d        .F      MOV      r5,r1
        0x00001516:    4620         F      MOV      r0,r4
        0x00001518:    f7fff934    ..4.    BL       SendChar ; 0x784
        0x0000151c:    4620         F      MOV      r0,r4
        0x0000151e:    bd70        p.      POP      {r4-r6,pc}
    i.get_systick
    get_systick
        0x00001520:    4801        .H      LDR      r0,[pc,#4] ; [0x1528] = 0x2000001c
        0x00001522:    6800        .h      LDR      r0,[r0,#0]
        0x00001524:    4770        pG      BX       lr
    $d
        0x00001526:    0000        ..      DCW    0
        0x00001528:    2000001c    ...     DCD    536870940
    $t
    i.get_tick
    get_tick
        0x0000152c:    4801        .H      LDR      r0,[pc,#4] ; [0x1534] = 0x20000018
        0x0000152e:    6800        .h      LDR      r0,[r0,#0]
        0x00001530:    4770        pG      BX       lr
    $d
        0x00001532:    0000        ..      DCW    0
        0x00001534:    20000018    ...     DCD    536870936
    $t
    i.loop
    loop
        0x00001538:    b510        ..      PUSH     {r4,lr}
        0x0000153a:    f7fffff1    ....    BL       get_systick ; 0x1520
        0x0000153e:    4812        .H      LDR      r0,[pc,#72] ; [0x1588] = 0x20000014
        0x00001540:    6800        .h      LDR      r0,[r0,#0]
        0x00001542:    2104        .!      MOVS     r1,#4
        0x00001544:    4008        .@      ANDS     r0,r0,r1
        0x00001546:    0880        ..      LSRS     r0,r0,#2
        0x00001548:    2800        .(      CMP      r0,#0
        0x0000154a:    d007        ..      BEQ      0x155c ; loop + 36
        0x0000154c:    480e        .H      LDR      r0,[pc,#56] ; [0x1588] = 0x20000014
        0x0000154e:    6800        .h      LDR      r0,[r0,#0]
        0x00001550:    4388        .C      BICS     r0,r0,r1
        0x00001552:    490d        .I      LDR      r1,[pc,#52] ; [0x1588] = 0x20000014
        0x00001554:    6008        .`      STR      r0,[r1,#0]
        0x00001556:    2008        .       MOVS     r0,#8
        0x00001558:    f7ffff28    ..(.    BL       fmt_err ; 0x13ac
        0x0000155c:    f7ffff7e    ..~.    BL       fmt_parsing ; 0x145c
        0x00001560:    4809        .H      LDR      r0,[pc,#36] ; [0x1588] = 0x20000014
        0x00001562:    6800        .h      LDR      r0,[r0,#0]
        0x00001564:    2102        .!      MOVS     r1,#2
        0x00001566:    4008        .@      ANDS     r0,r0,r1
        0x00001568:    0840        @.      LSRS     r0,r0,#1
        0x0000156a:    2800        .(      CMP      r0,#0
        0x0000156c:    d00a        ..      BEQ      0x1584 ; loop + 76
        0x0000156e:    4806        .H      LDR      r0,[pc,#24] ; [0x1588] = 0x20000014
        0x00001570:    6800        .h      LDR      r0,[r0,#0]
        0x00001572:    4388        .C      BICS     r0,r0,r1
        0x00001574:    4904        .I      LDR      r1,[pc,#16] ; [0x1588] = 0x20000014
        0x00001576:    6008        .`      STR      r0,[r1,#0]
        0x00001578:    4804        .H      LDR      r0,[pc,#16] ; [0x158c] = 0x40004840
        0x0000157a:    6b80        .k      LDR      r0,[r0,#0x38]
        0x0000157c:    2101        .!      MOVS     r1,#1
        0x0000157e:    4048        H@      EORS     r0,r0,r1
        0x00001580:    4902        .I      LDR      r1,[pc,#8] ; [0x158c] = 0x40004840
        0x00001582:    6388        .c      STR      r0,[r1,#0x38]
        0x00001584:    bd10        ..      POP      {r4,pc}
    $d
        0x00001586:    0000        ..      DCW    0
        0x00001588:    20000014    ...     DCD    536870932
        0x0000158c:    40004840    @H.@    DCD    1073760320
    $t
    i.main
    main
        0x00001590:    f7fff886    ....    BL       SYS_Init ; 0x6a0
        0x00001594:    f7fefff4    ....    BL       GPIO_Init ; 0x580
        0x00001598:    f7ffface    ....    BL       UART0_Init ; 0xb38
        0x0000159c:    f7fff9b2    ....    BL       TIMER0_Init ; 0x904
        0x000015a0:    f7fff9be    ....    BL       TIMER1_Init ; 0x920
        0x000015a4:    207d        }       MOVS     r0,#0x7d
        0x000015a6:    00c0        ..      LSLS     r0,r0,#3
        0x000015a8:    f7fff918    ....    BL       SysTick_enable ; 0x7dc
        0x000015ac:    e001        ..      B        0x15b2 ; main + 34
        0x000015ae:    f7ffffc3    ....    BL       loop ; 0x1538
        0x000015b2:    e7fc        ..      B        0x15ae ; main + 30
    i.put_rc
    put_rc
        0x000015b4:    b570        p.      PUSH     {r4-r6,lr}
        0x000015b6:    4605        .F      MOV      r5,r0
        0x000015b8:    4c09        .L      LDR      r4,[pc,#36] ; [0x15e0] = 0x19b0
        0x000015ba:    2600        .&      MOVS     r6,#0
        0x000015bc:    e005        ..      B        0x15ca ; put_rc + 22
        0x000015be:    bf00        ..      NOP      
        0x000015c0:    7821        !x      LDRB     r1,[r4,#0]
        0x000015c2:    1c64        d.      ADDS     r4,r4,#1
        0x000015c4:    2900        .)      CMP      r1,#0
        0x000015c6:    d1fb        ..      BNE      0x15c0 ; put_rc + 12
        0x000015c8:    1c76        v.      ADDS     r6,r6,#1
        0x000015ca:    42ae        .B      CMP      r6,r5
        0x000015cc:    d002        ..      BEQ      0x15d4 ; put_rc + 32
        0x000015ce:    7820         x      LDRB     r0,[r4,#0]
        0x000015d0:    2800        .(      CMP      r0,#0
        0x000015d2:    d1f4        ..      BNE      0x15be ; put_rc + 10
        0x000015d4:    4622        "F      MOV      r2,r4
        0x000015d6:    4629        )F      MOV      r1,r5
        0x000015d8:    a002        ..      ADR      r0,{pc}+0xc ; 0x15e4
        0x000015da:    f7fffc57    ..W.    BL       __0printf$8 ; 0xe8c
        0x000015de:    bd70        p.      POP      {r4-r6,pc}
    $d
        0x000015e0:    000019b0    ....    DCD    6576
        0x000015e4:    253d6372    rc=%    DCD    624780146
        0x000015e8:    65722075    u re    DCD    1701978229
        0x000015ec:    746c7573    sult    DCD    1953265011
        0x000015f0:    0d73253a    :%s.    DCD    225649978
        0x000015f4:    0000000a    ....    DCD    10
    $t
    i.rx_rcv_irq
    rx_rcv_irq
        0x000015f8:    b510        ..      PUSH     {r4,lr}
        0x000015fa:    4604        .F      MOV      r4,r0
        0x000015fc:    2c0d        .,      CMP      r4,#0xd
        0x000015fe:    d10a        ..      BNE      0x1616 ; rx_rcv_irq + 30
        0x00001600:    2000        .       MOVS     r0,#0
        0x00001602:    4923        #I      LDR      r1,[pc,#140] ; [0x1690] = 0x2000002c
        0x00001604:    6008        .`      STR      r0,[r1,#0]
        0x00001606:    4823        #H      LDR      r0,[pc,#140] ; [0x1694] = 0x20000014
        0x00001608:    6800        .h      LDR      r0,[r0,#0]
        0x0000160a:    2104        .!      MOVS     r1,#4
        0x0000160c:    4308        .C      ORRS     r0,r0,r1
        0x0000160e:    4921        !I      LDR      r1,[pc,#132] ; [0x1694] = 0x20000014
        0x00001610:    6008        .`      STR      r0,[r1,#0]
        0x00001612:    f000f8af    ....    BL       stop_timer0 ; 0x1774
        0x00001616:    4820         H      LDR      r0,[pc,#128] ; [0x1698] = 0x2000002a
        0x00001618:    7800        .x      LDRB     r0,[r0,#0]
        0x0000161a:    2807        .(      CMP      r0,#7
        0x0000161c:    da19        ..      BGE      0x1652 ; rx_rcv_irq + 90
        0x0000161e:    2c7f        .,      CMP      r4,#0x7f
        0x00001620:    d001        ..      BEQ      0x1626 ; rx_rcv_irq + 46
        0x00001622:    2c08        .,      CMP      r4,#8
        0x00001624:    d105        ..      BNE      0x1632 ; rx_rcv_irq + 58
        0x00001626:    481c        .H      LDR      r0,[pc,#112] ; [0x1698] = 0x2000002a
        0x00001628:    7800        .x      LDRB     r0,[r0,#0]
        0x0000162a:    1e40        @.      SUBS     r0,r0,#1
        0x0000162c:    491a        .I      LDR      r1,[pc,#104] ; [0x1698] = 0x2000002a
        0x0000162e:    7008        .p      STRB     r0,[r1,#0]
        0x00001630:    e008        ..      B        0x1644 ; rx_rcv_irq + 76
        0x00001632:    481a        .H      LDR      r0,[pc,#104] ; [0x169c] = 0x20000022
        0x00001634:    4918        .I      LDR      r1,[pc,#96] ; [0x1698] = 0x2000002a
        0x00001636:    7809        .x      LDRB     r1,[r1,#0]
        0x00001638:    5444        DT      STRB     r4,[r0,r1]
        0x0000163a:    4817        .H      LDR      r0,[pc,#92] ; [0x1698] = 0x2000002a
        0x0000163c:    7800        .x      LDRB     r0,[r0,#0]
        0x0000163e:    1c40        @.      ADDS     r0,r0,#1
        0x00001640:    4915        .I      LDR      r1,[pc,#84] ; [0x1698] = 0x2000002a
        0x00001642:    7008        .p      STRB     r0,[r1,#0]
        0x00001644:    4814        .H      LDR      r0,[pc,#80] ; [0x1698] = 0x2000002a
        0x00001646:    7800        .x      LDRB     r0,[r0,#0]
        0x00001648:    2801        .(      CMP      r0,#1
        0x0000164a:    d11f        ..      BNE      0x168c ; rx_rcv_irq + 148
        0x0000164c:    f000f888    ....    BL       start_timer0 ; 0x1760
        0x00001650:    e01c        ..      B        0x168c ; rx_rcv_irq + 148
        0x00001652:    4811        .H      LDR      r0,[pc,#68] ; [0x1698] = 0x2000002a
        0x00001654:    7800        .x      LDRB     r0,[r0,#0]
        0x00001656:    2807        .(      CMP      r0,#7
        0x00001658:    d118        ..      BNE      0x168c ; rx_rcv_irq + 148
        0x0000165a:    2c7f        .,      CMP      r4,#0x7f
        0x0000165c:    d001        ..      BEQ      0x1662 ; rx_rcv_irq + 106
        0x0000165e:    2c08        .,      CMP      r4,#8
        0x00001660:    d105        ..      BNE      0x166e ; rx_rcv_irq + 118
        0x00001662:    480d        .H      LDR      r0,[pc,#52] ; [0x1698] = 0x2000002a
        0x00001664:    7800        .x      LDRB     r0,[r0,#0]
        0x00001666:    1e40        @.      SUBS     r0,r0,#1
        0x00001668:    490b        .I      LDR      r1,[pc,#44] ; [0x1698] = 0x2000002a
        0x0000166a:    7008        .p      STRB     r0,[r1,#0]
        0x0000166c:    e00e        ..      B        0x168c ; rx_rcv_irq + 148
        0x0000166e:    480b        .H      LDR      r0,[pc,#44] ; [0x169c] = 0x20000022
        0x00001670:    4909        .I      LDR      r1,[pc,#36] ; [0x1698] = 0x2000002a
        0x00001672:    7809        .x      LDRB     r1,[r1,#0]
        0x00001674:    5444        DT      STRB     r4,[r0,r1]
        0x00001676:    4807        .H      LDR      r0,[pc,#28] ; [0x1694] = 0x20000014
        0x00001678:    6800        .h      LDR      r0,[r0,#0]
        0x0000167a:    2108        .!      MOVS     r1,#8
        0x0000167c:    4308        .C      ORRS     r0,r0,r1
        0x0000167e:    4905        .I      LDR      r1,[pc,#20] ; [0x1694] = 0x20000014
        0x00001680:    6008        .`      STR      r0,[r1,#0]
        0x00001682:    2000        .       MOVS     r0,#0
        0x00001684:    4904        .I      LDR      r1,[pc,#16] ; [0x1698] = 0x2000002a
        0x00001686:    7008        .p      STRB     r0,[r1,#0]
        0x00001688:    f000f874    ..t.    BL       stop_timer0 ; 0x1774
        0x0000168c:    bd10        ..      POP      {r4,pc}
    $d
        0x0000168e:    0000        ..      DCW    0
        0x00001690:    2000002c    ,..     DCD    536870956
        0x00001694:    20000014    ...     DCD    536870932
        0x00001698:    2000002a    *..     DCD    536870954
        0x0000169c:    20000022    "..     DCD    536870946
    $t
    i.set_systick
    set_systick
        0x000016a0:    4901        .I      LDR      r1,[pc,#4] ; [0x16a8] = 0x2000001c
        0x000016a2:    6008        .`      STR      r0,[r1,#0]
        0x000016a4:    4770        pG      BX       lr
    $d
        0x000016a6:    0000        ..      DCW    0
        0x000016a8:    2000001c    ...     DCD    536870940
    $t
    i.set_tick
    set_tick
        0x000016ac:    4901        .I      LDR      r1,[pc,#4] ; [0x16b4] = 0x20000018
        0x000016ae:    6008        .`      STR      r0,[r1,#0]
        0x000016b0:    4770        pG      BX       lr
    $d
        0x000016b2:    0000        ..      DCW    0
        0x000016b4:    20000018    ...     DCD    536870936
    $t
    i.stackDump
    stackDump
        0x000016b8:    b510        ..      PUSH     {r4,lr}
        0x000016ba:    4604        .F      MOV      r4,r0
        0x000016bc:    a010        ..      ADR      r0,{pc}+0x44 ; 0x1700
        0x000016be:    6821        !h      LDR      r1,[r4,#0]
        0x000016c0:    f7fffbe4    ....    BL       __0printf$8 ; 0xe8c
        0x000016c4:    a011        ..      ADR      r0,{pc}+0x48 ; 0x170c
        0x000016c6:    6861        ah      LDR      r1,[r4,#4]
        0x000016c8:    f7fffbe0    ....    BL       __0printf$8 ; 0xe8c
        0x000016cc:    a012        ..      ADR      r0,{pc}+0x4c ; 0x1718
        0x000016ce:    68a1        .h      LDR      r1,[r4,#8]
        0x000016d0:    f7fffbdc    ....    BL       __0printf$8 ; 0xe8c
        0x000016d4:    a013        ..      ADR      r0,{pc}+0x50 ; 0x1724
        0x000016d6:    68e1        .h      LDR      r1,[r4,#0xc]
        0x000016d8:    f7fffbd8    ....    BL       __0printf$8 ; 0xe8c
        0x000016dc:    a014        ..      ADR      r0,{pc}+0x54 ; 0x1730
        0x000016de:    6921        !i      LDR      r1,[r4,#0x10]
        0x000016e0:    f7fffbd4    ....    BL       __0printf$8 ; 0xe8c
        0x000016e4:    a015        ..      ADR      r0,{pc}+0x58 ; 0x173c
        0x000016e6:    6961        ai      LDR      r1,[r4,#0x14]
        0x000016e8:    f7fffbd0    ....    BL       __0printf$8 ; 0xe8c
        0x000016ec:    a016        ..      ADR      r0,{pc}+0x5c ; 0x1748
        0x000016ee:    69a1        .i      LDR      r1,[r4,#0x18]
        0x000016f0:    f7fffbcc    ....    BL       __0printf$8 ; 0xe8c
        0x000016f4:    a017        ..      ADR      r0,{pc}+0x60 ; 0x1754
        0x000016f6:    69e1        .i      LDR      r1,[r4,#0x1c]
        0x000016f8:    f7fffbc8    ....    BL       __0printf$8 ; 0xe8c
        0x000016fc:    bd10        ..      POP      {r4,pc}
    $d
        0x000016fe:    0000        ..      DCW    0
        0x00001700:    20203072    r0      DCD    538980466
        0x00001704:    7830203d    = 0x    DCD    2016419901
        0x00001708:    000a7825    %x..    DCD    686117
        0x0000170c:    20203172    r1      DCD    538980722
        0x00001710:    7830203d    = 0x    DCD    2016419901
        0x00001714:    000a7825    %x..    DCD    686117
        0x00001718:    20203272    r2      DCD    538980978
        0x0000171c:    7830203d    = 0x    DCD    2016419901
        0x00001720:    000a7825    %x..    DCD    686117
        0x00001724:    20203372    r3      DCD    538981234
        0x00001728:    7830203d    = 0x    DCD    2016419901
        0x0000172c:    000a7825    %x..    DCD    686117
        0x00001730:    20323172    r12     DCD    540160370
        0x00001734:    7830203d    = 0x    DCD    2016419901
        0x00001738:    000a7825    %x..    DCD    686117
        0x0000173c:    2020726c    lr      DCD    538997356
        0x00001740:    7830203d    = 0x    DCD    2016419901
        0x00001744:    000a7825    %x..    DCD    686117
        0x00001748:    20206370    pc      DCD    538993520
        0x0000174c:    7830203d    = 0x    DCD    2016419901
        0x00001750:    000a7825    %x..    DCD    686117
        0x00001754:    20727370    psr     DCD    544371568
        0x00001758:    7830203d    = 0x    DCD    2016419901
        0x0000175c:    000a7825    %x..    DCD    686117
    $t
    i.start_timer0
    start_timer0
        0x00001760:    b510        ..      PUSH     {r4,lr}
        0x00001762:    4803        .H      LDR      r0,[pc,#12] ; [0x1770] = 0x40050000
        0x00001764:    f7fff8f0    ....    BL       TIMER_EnableInt ; 0x948
        0x00001768:    4801        .H      LDR      r0,[pc,#4] ; [0x1770] = 0x40050000
        0x0000176a:    f7fff966    ..f.    BL       TIMER_Start ; 0xa3a
        0x0000176e:    bd10        ..      POP      {r4,pc}
    $d
        0x00001770:    40050000    ...@    DCD    1074069504
    $t
    i.stop_timer0
    stop_timer0
        0x00001774:    bf00        ..      NOP      
        0x00001776:    2001        .       MOVS     r0,#1
        0x00001778:    490a        .I      LDR      r1,[pc,#40] ; [0x17a4] = 0x40050000
        0x0000177a:    6088        .`      STR      r0,[r1,#8]
        0x0000177c:    bf00        ..      NOP      
        0x0000177e:    bf00        ..      NOP      
        0x00001780:    4608        .F      MOV      r0,r1
        0x00001782:    6800        .h      LDR      r0,[r0,#0]
        0x00001784:    2101        .!      MOVS     r1,#1
        0x00001786:    0749        I.      LSLS     r1,r1,#29
        0x00001788:    4388        .C      BICS     r0,r0,r1
        0x0000178a:    4906        .I      LDR      r1,[pc,#24] ; [0x17a4] = 0x40050000
        0x0000178c:    6008        .`      STR      r0,[r1,#0]
        0x0000178e:    bf00        ..      NOP      
        0x00001790:    bf00        ..      NOP      
        0x00001792:    4608        .F      MOV      r0,r1
        0x00001794:    6800        .h      LDR      r0,[r0,#0]
        0x00001796:    0389        ..      LSLS     r1,r1,#14
        0x00001798:    4388        .C      BICS     r0,r0,r1
        0x0000179a:    4902        .I      LDR      r1,[pc,#8] ; [0x17a4] = 0x40050000
        0x0000179c:    6008        .`      STR      r0,[r1,#0]
        0x0000179e:    bf00        ..      NOP      
        0x000017a0:    4770        pG      BX       lr
    $d
        0x000017a2:    0000        ..      DCW    0
        0x000017a4:    40050000    ...@    DCD    1074069504
    $t
    i.systick_counter
    systick_counter
        0x000017a8:    4802        .H      LDR      r0,[pc,#8] ; [0x17b4] = 0x2000001c
        0x000017aa:    6800        .h      LDR      r0,[r0,#0]
        0x000017ac:    1c40        @.      ADDS     r0,r0,#1
        0x000017ae:    4901        .I      LDR      r1,[pc,#4] ; [0x17b4] = 0x2000001c
        0x000017b0:    6008        .`      STR      r0,[r1,#0]
        0x000017b2:    4770        pG      BX       lr
    $d
        0x000017b4:    2000001c    ...     DCD    536870940
    $t
    i.tick_counter
    tick_counter
        0x000017b8:    b500        ..      PUSH     {lr}
        0x000017ba:    4807        .H      LDR      r0,[pc,#28] ; [0x17d8] = 0x20000018
        0x000017bc:    6800        .h      LDR      r0,[r0,#0]
        0x000017be:    1c40        @.      ADDS     r0,r0,#1
        0x000017c0:    4905        .I      LDR      r1,[pc,#20] ; [0x17d8] = 0x20000018
        0x000017c2:    6008        .`      STR      r0,[r1,#0]
        0x000017c4:    f7fffeb2    ....    BL       get_tick ; 0x152c
        0x000017c8:    4904        .I      LDR      r1,[pc,#16] ; [0x17dc] = 0xea60
        0x000017ca:    4288        .B      CMP      r0,r1
        0x000017cc:    d302        ..      BCC      0x17d4 ; tick_counter + 28
        0x000017ce:    2000        .       MOVS     r0,#0
        0x000017d0:    f7ffff6c    ..l.    BL       set_tick ; 0x16ac
        0x000017d4:    bd00        ..      POP      {pc}
    $d
        0x000017d6:    0000        ..      DCW    0
        0x000017d8:    20000018    ...     DCD    536870936
        0x000017dc:    0000ea60    `...    DCD    60000
    $d.realdata
    .constdata
    gau32ClkSrcTbl
        0x000017e0:    01e84800    .H..    DCD    32000000
        0x000017e4:    00008000    ....    DCD    32768
        0x000017e8:    05b8d800    ....    DCD    96000000
        0x000017ec:    00009600    ....    DCD    38400
        0x000017f0:    02dc6c00    .l..    DCD    48000000
        0x000017f4:    00000000    ....    DCD    0
        0x000017f8:    00000000    ....    DCD    0
        0x000017fc:    02dc6c00    .l..    DCD    48000000
    .constdata
        0x00001800:    00000000    ....    DCD    0
        0x00001804:    00000004    ....    DCD    4
        0x00001808:    00000008    ....    DCD    8
        0x0000180c:    0000000c    ....    DCD    12
        0x00001810:    00000000    ....    DCD    0
        0x00001814:    00000000    ....    DCD    0
        0x00001818:    00000000    ....    DCD    0
        0x0000181c:    00000010    ....    DCD    16
        0x00001820:    00000000    ....    DCD    0
        0x00001824:    00000004    ....    DCD    4
        0x00001828:    00000008    ....    DCD    8
        0x0000182c:    00000000    ....    DCD    0
        0x00001830:    00000004    ....    DCD    4
        0x00001834:    00000008    ....    DCD    8
    .constdata
        0x00001838:    01e84800    .H..    DCD    32000000
        0x0000183c:    00008000    ....    DCD    32768
        0x00001840:    00000000    ....    DCD    0
        0x00001844:    00000000    ....    DCD    0
        0x00001848:    00000000    ....    DCD    0
        0x0000184c:    00009600    ....    DCD    38400
        0x00001850:    00000000    ....    DCD    0
        0x00001854:    02dc6c00    .l..    DCD    48000000
    .constdata
        0x00001858:    01e84800    .H..    DCD    32000000
        0x0000185c:    00000000    ....    DCD    0
        0x00001860:    00008000    ....    DCD    32768
        0x00001864:    02dc6c00    .l..    DCD    48000000
        0x00001868:    00000000    ....    DCD    0
        0x0000186c:    00009600    ....    DCD    38400
        0x00001870:    01e84800    .H..    DCD    32000000
        0x00001874:    00000000    ....    DCD    0
        0x00001878:    00008000    ....    DCD    32768
        0x0000187c:    02dc6c00    .l..    DCD    48000000
        0x00001880:    00000000    ....    DCD    0
        0x00001884:    00009600    ....    DCD    38400
        0x00001888:    01e84800    .H..    DCD    32000000
        0x0000188c:    00000000    ....    DCD    0
        0x00001890:    00008000    ....    DCD    32768
        0x00001894:    02dc6c00    .l..    DCD    48000000
        0x00001898:    00000000    ....    DCD    0
        0x0000189c:    00009600    ....    DCD    38400
    .constdata
    CRC8TAB
        0x000018a0:    53623100    .1bS    DCD    1398944000
        0x000018a4:    97a6f5c4    ....    DCD    2544301508
        0x000018a8:    eadb88b9    ....    DCD    3940255929
        0x000018ac:    2e1f4c7d    }L..    DCD    773803133
        0x000018b0:    10217243    Cr!.    DCD    270627395
        0x000018b4:    d4e5b687    ....    DCD    3571824263
        0x000018b8:    a998cbfa    ....    DCD    2845363194
        0x000018bc:    6d5c0f3e    >.\m    DCD    1834749758
        0x000018c0:    d5e4b786    ....    DCD    3588536198
        0x000018c4:    11207342    Bs .    DCD    287339330
        0x000018c8:    6c5d0e3f    ?.]l    DCD    1818037823
        0x000018cc:    a899cafb    ....    DCD    2828651259
        0x000018d0:    96a7f4c5    ....    DCD    2527589573
        0x000018d4:    52633001    .0cR    DCD    1382232065
        0x000018d8:    2f1e4d7c    |M./    DCD    790515068
        0x000018dc:    ebda89b8    ....    DCD    3956967864
        0x000018e0:    6e5f0c3d    =._n    DCD    1851722813
        0x000018e4:    aa9bc8f9    ....    DCD    2862336249
        0x000018e8:    d7e6b584    ....    DCD    3622221188
        0x000018ec:    13227140    @q".    DCD    321024320
        0x000018f0:    2d1c4f7e    ~O.-    DCD    756830078
        0x000018f4:    e9d88bba    ....    DCD    3923282874
        0x000018f8:    94a5f6c7    ....    DCD    2493904583
        0x000018fc:    50613203    .2aP    DCD    1348547075
        0x00001900:    e8d98abb    ....    DCD    3906570939
        0x00001904:    2c1d4e7f    .N.,    DCD    740118143
        0x00001908:    51603302    .3`Q    DCD    1365259010
        0x0000190c:    95a4f7c6    ....    DCD    2510616518
        0x00001910:    ab9ac9f8    ....    DCD    2879048184
        0x00001914:    6f5e0d3c    <.^o    DCD    1868434748
        0x00001918:    12237041    Ap#.    DCD    304312385
        0x0000191c:    d6e7b485    ....    DCD    3605509253
        0x00001920:    29184b7a    zK.)    DCD    689458042
        0x00001924:    eddc8fbe    ....    DCD    3990654910
        0x00001928:    90a1f2c3    ....    DCD    2426532547
        0x0000192c:    54653607    .6eT    DCD    1415919111
        0x00001930:    6a5b0839    9.[j    DCD    1784350777
        0x00001934:    ae9fccfd    ....    DCD    2929708285
        0x00001938:    d3e2b180    ....    DCD    3554849152
        0x0000193c:    17267544    Du&.    DCD    388396356
        0x00001940:    af9ecdfc    ....    DCD    2946420220
        0x00001944:    6b5a0938    8.Zk    DCD    1801062712
        0x00001948:    16277445    Et'.    DCD    371684421
        0x0000194c:    d2e3b081    ....    DCD    3538137217
        0x00001950:    ecdd8ebf    ....    DCD    3973942975
        0x00001954:    28194a7b    {J.(    DCD    672746107
        0x00001958:    55643706    .7dU    DCD    1432631046
        0x0000195c:    91a0f3c2    ....    DCD    2443244482
        0x00001960:    14257647    Gv%.    DCD    337999431
        0x00001964:    d0e1b283    ....    DCD    3504452227
        0x00001968:    ad9ccffe    ....    DCD    2912735230
        0x0000196c:    69580b3a    :.Xi    DCD    1767377722
        0x00001970:    57663504    .5fW    DCD    1466316036
        0x00001974:    93a2f1c0    ....    DCD    2476929472
        0x00001978:    fedf8cbd    ....    DCD    4276063421
        0x0000197c:    2a1b4879    yH.*    DCD    706431097
        0x00001980:    92a3f0c1    ....    DCD    2460217537
        0x00001984:    56673405    .4gV    DCD    1449604101
        0x00001988:    2b1a4978    xI.+    DCD    723143032
        0x0000198c:    efde8dbc    ....    DCD    4024339900
        0x00001990:    d1e0b382    ....    DCD    3521164162
        0x00001994:    15247746    Fw$.    DCD    354711366
        0x00001998:    68590a3b    ;.Yh    DCD    1750665787
        0x0000199c:    ac9dceff    ....    DCD    2896023295
    __FUNCTION__
        0x000019a0:    706d6f63    comp    DCD    1886220131
        0x000019a4:    5f657261    are_    DCD    1600483937
        0x000019a8:    66667562    buff    DCD    1717990754
        0x000019ac:    00007265    er..    DCD    29285
        0x000019b0:    6f727265    erro    DCD    1869771365
        0x000019b4:    65685f72    r_he    DCD    1701338994
        0x000019b8:    65006461    ad.e    DCD    1694524513
        0x000019bc:    726f7272    rror    DCD    1919906418
        0x000019c0:    6f72775f    _wro    DCD    1869772639
        0x000019c4:    635f676e    ng_c    DCD    1667196782
        0x000019c8:    0065646f    ode.    DCD    6644847
        0x000019cc:    6f727265    erro    DCD    1869771365
        0x000019d0:    72775f72    r_wr    DCD    1920425842
        0x000019d4:    5f676e6f    ong_    DCD    1600613999
        0x000019d8:    61746164    data    DCD    1635017060
        0x000019dc:    72650030    0.er    DCD    1919221808
        0x000019e0:    5f726f72    ror_    DCD    1601335154
        0x000019e4:    6e6f7277    wron    DCD    1852797559
        0x000019e8:    61645f67    g_da    DCD    1633967975
        0x000019ec:    00316174    ta1.    DCD    3236212
        0x000019f0:    6f727265    erro    DCD    1869771365
        0x000019f4:    72775f72    r_wr    DCD    1920425842
        0x000019f8:    5f676e6f    ong_    DCD    1600613999
        0x000019fc:    61746164    data    DCD    1635017060
        0x00001a00:    72650032    2.er    DCD    1919221810
        0x00001a04:    5f726f72    ror_    DCD    1601335154
        0x00001a08:    6e6f7277    wron    DCD    1852797559
        0x00001a0c:    61645f67    g_da    DCD    1633967975
        0x00001a10:    00336174    ta3.    DCD    3367284
        0x00001a14:    6f727265    erro    DCD    1869771365
        0x00001a18:    73635f72    r_cs    DCD    1935892338
        0x00001a1c:    72726500    .err    DCD    1920099584
        0x00001a20:    745f726f    or_t    DCD    1952412271
        0x00001a24:    006c6961    ail.    DCD    7104865
        0x00001a28:    6f727265    erro    DCD    1869771365
        0x00001a2c:    69745f72    r_ti    DCD    1769234290
        0x00001a30:    756f656d    meou    DCD    1970234733
        0x00001a34:    00000074    t...    DCD    116
    Region$$Table$$Base
        0x00001a38:    00001a58    X...    DCD    6744
        0x00001a3c:    20000000    ...     DCD    536870912
        0x00001a40:    00000030    0...    DCD    48
        0x00001a44:    00000eac    ....    DCD    3756
        0x00001a48:    00001a88    ....    DCD    6792
        0x00001a4c:    20000030    0..     DCD    536870960
        0x00001a50:    00000200    ....    DCD    512
        0x00001a54:    00000ebc    ....    DCD    3772
    Region$$Table$$Limit

** Section #2 'ER_RW' (SHT_PROGBITS) [SHF_ALLOC + SHF_WRITE]
    Size   : 48 bytes (alignment 4)
    Address: 0x20000000


** Section #3 'ER_ZI' (SHT_NOBITS) [SHF_ALLOC + SHF_WRITE]
    Size   : 512 bytes (alignment 8)
    Address: 0x20000030


** Section #4 '.debug_abbrev' (SHT_PROGBITS)
    Size   : 1476 bytes


** Section #5 '.debug_frame' (SHT_PROGBITS)
    Size   : 2212 bytes


** Section #6 '.debug_info' (SHT_PROGBITS)
    Size   : 26572 bytes


** Section #7 '.debug_line' (SHT_PROGBITS)
    Size   : 10488 bytes


** Section #8 '.debug_loc' (SHT_PROGBITS)
    Size   : 3352 bytes


** Section #9 '.debug_macinfo' (SHT_PROGBITS)
    Size   : 172096 bytes


** Section #10 '.debug_pubnames' (SHT_PROGBITS)
    Size   : 2109 bytes


** Section #11 '.symtab' (SHT_SYMTAB)
    Size   : 7136 bytes (alignment 4)
    String table #12 '.strtab'
    Last local symbol no. 275


** Section #12 '.strtab' (SHT_STRTAB)
    Size   : 5140 bytes


** Section #13 '.note' (SHT_NOTE)
    Size   : 28 bytes (alignment 4)


** Section #14 '.comment' (SHT_PROGBITS)
    Size   : 9400 bytes


** Section #15 '.shstrtab' (SHT_STRTAB)
    Size   : 156 bytes


